
game:     file format elf32-i386


Disassembly of section .text:

08049000 <cli>:
 8049000:	55                   	push   %ebp
 8049001:	89 e5                	mov    %esp,%ebp
 8049003:	e8 d2 00 00 00       	call   80490da <__x86.get_pc_thunk.ax>
 8049008:	05 f8 df 00 00       	add    $0xdff8,%eax
 804900d:	fa                   	cli    
 804900e:	90                   	nop
 804900f:	5d                   	pop    %ebp
 8049010:	c3                   	ret    

08049011 <add_irq_handle>:
 8049011:	55                   	push   %ebp
 8049012:	89 e5                	mov    %esp,%ebp
 8049014:	53                   	push   %ebx
 8049015:	83 ec 04             	sub    $0x4,%esp
 8049018:	e8 bd 00 00 00       	call   80490da <__x86.get_pc_thunk.ax>
 804901d:	05 e3 df 00 00       	add    $0xdfe3,%eax
 8049022:	83 ec 04             	sub    $0x4,%esp
 8049025:	ff 75 0c             	pushl  0xc(%ebp)
 8049028:	ff 75 08             	pushl  0x8(%ebp)
 804902b:	6a 00                	push   $0x0
 804902d:	89 c3                	mov    %eax,%ebx
 804902f:	e8 ae 00 00 00       	call   80490e2 <syscall>
 8049034:	83 c4 10             	add    $0x10,%esp
 8049037:	90                   	nop
 8049038:	8b 5d fc             	mov    -0x4(%ebp),%ebx
 804903b:	c9                   	leave  
 804903c:	c3                   	ret    

0804903d <game_init>:
 804903d:	55                   	push   %ebp
 804903e:	89 e5                	mov    %esp,%ebp
 8049040:	53                   	push   %ebx
 8049041:	83 ec 04             	sub    $0x4,%esp
 8049044:	e8 95 00 00 00       	call   80490de <__x86.get_pc_thunk.bx>
 8049049:	81 c3 b7 df 00 00    	add    $0xdfb7,%ebx
 804904f:	e8 f0 02 00 00       	call   8049344 <init_timer>
 8049054:	83 ec 08             	sub    $0x8,%esp
 8049057:	c7 c0 c9 97 04 08    	mov    $0x80497c9,%eax
 804905d:	50                   	push   %eax
 804905e:	6a 00                	push   $0x0
 8049060:	e8 ac ff ff ff       	call   8049011 <add_irq_handle>
 8049065:	83 c4 10             	add    $0x10,%esp
 8049068:	83 ec 08             	sub    $0x8,%esp
 804906b:	c7 c0 a8 97 04 08    	mov    $0x80497a8,%eax
 8049071:	50                   	push   %eax
 8049072:	6a 01                	push   $0x1
 8049074:	e8 98 ff ff ff       	call   8049011 <add_irq_handle>
 8049079:	83 c4 10             	add    $0x10,%esp
 804907c:	8d 83 88 c0 ff ff    	lea    -0x3f78(%ebx),%eax
 8049082:	50                   	push   %eax
 8049083:	6a 13                	push   $0x13
 8049085:	8d 83 00 c0 ff ff    	lea    -0x4000(%ebx),%eax
 804908b:	50                   	push   %eax
 804908c:	8d 83 14 c0 ff ff    	lea    -0x3fec(%ebx),%eax
 8049092:	50                   	push   %eax
 8049093:	e8 38 1f 00 00       	call   804afd0 <printf>
 8049098:	83 c4 10             	add    $0x10,%esp
 804909b:	e8 ac 07 00 00       	call   804984c <main_loop>
 80490a0:	e8 5b ff ff ff       	call   8049000 <cli>
 80490a5:	83 ec 0c             	sub    $0xc,%esp
 80490a8:	8d 83 3e c0 ff ff    	lea    -0x3fc2(%ebx),%eax
 80490ae:	50                   	push   %eax
 80490af:	8d 83 88 c0 ff ff    	lea    -0x3f78(%ebx),%eax
 80490b5:	50                   	push   %eax
 80490b6:	6a 17                	push   $0x17
 80490b8:	8d 83 00 c0 ff ff    	lea    -0x4000(%ebx),%eax
 80490be:	50                   	push   %eax
 80490bf:	8d 83 40 c0 ff ff    	lea    -0x3fc0(%ebx),%eax
 80490c5:	50                   	push   %eax
 80490c6:	e8 05 1f 00 00       	call   804afd0 <printf>
 80490cb:	83 c4 20             	add    $0x20,%esp
 80490ce:	b8 01 00 00 00       	mov    $0x1,%eax
 80490d3:	82 90 8b 5d fc c9 c3 	adcb   $0xc3,-0x3603a275(%eax)

080490da <__x86.get_pc_thunk.ax>:
 80490da:	8b 04 24             	mov    (%esp),%eax
 80490dd:	c3                   	ret    

080490de <__x86.get_pc_thunk.bx>:
 80490de:	8b 1c 24             	mov    (%esp),%ebx
 80490e1:	c3                   	ret    

080490e2 <syscall>:
 80490e2:	55                   	push   %ebp
 80490e3:	89 e5                	mov    %esp,%ebp
 80490e5:	53                   	push   %ebx
 80490e6:	83 ec 10             	sub    $0x10,%esp
 80490e9:	e8 ec ff ff ff       	call   80490da <__x86.get_pc_thunk.ax>
 80490ee:	05 12 df 00 00       	add    $0xdf12,%eax
 80490f3:	8d 45 08             	lea    0x8(%ebp),%eax
 80490f6:	89 45 f8             	mov    %eax,-0x8(%ebp)
 80490f9:	8b 45 f8             	mov    -0x8(%ebp),%eax
 80490fc:	8b 00                	mov    (%eax),%eax
 80490fe:	8b 55 f8             	mov    -0x8(%ebp),%edx
 8049101:	83 c2 04             	add    $0x4,%edx
 8049104:	8b 1a                	mov    (%edx),%ebx
 8049106:	8b 55 f8             	mov    -0x8(%ebp),%edx
 8049109:	83 c2 08             	add    $0x8,%edx
 804910c:	8b 0a                	mov    (%edx),%ecx
 804910e:	8b 55 f8             	mov    -0x8(%ebp),%edx
 8049111:	83 c2 0c             	add    $0xc,%edx
 8049114:	8b 12                	mov    (%edx),%edx
 8049116:	cd 80                	int    $0x80
 8049118:	89 45 f4             	mov    %eax,-0xc(%ebp)
 804911b:	8b 45 f4             	mov    -0xc(%ebp),%eax
 804911e:	83 c4 10             	add    $0x10,%esp
 8049121:	5b                   	pop    %ebx
 8049122:	5d                   	pop    %ebp
 8049123:	c3                   	ret    

08049124 <_exit>:
 8049124:	55                   	push   %ebp
 8049125:	89 e5                	mov    %esp,%ebp
 8049127:	53                   	push   %ebx
 8049128:	83 ec 04             	sub    $0x4,%esp
 804912b:	e8 aa ff ff ff       	call   80490da <__x86.get_pc_thunk.ax>
 8049130:	05 d0 de 00 00       	add    $0xded0,%eax
 8049135:	8d 90 d8 c0 ff ff    	lea    -0x3f28(%eax),%edx
 804913b:	52                   	push   %edx
 804913c:	6a 12                	push   $0x12
 804913e:	8d 90 94 c0 ff ff    	lea    -0x3f6c(%eax),%edx
 8049144:	52                   	push   %edx
 8049145:	8d 90 b0 c0 ff ff    	lea    -0x3f50(%eax),%edx
 804914b:	52                   	push   %edx
 804914c:	89 c3                	mov    %eax,%ebx
 804914e:	e8 7d 1e 00 00       	call   804afd0 <printf>
 8049153:	83 c4 10             	add    $0x10,%esp
 8049156:	83 7d 08 00          	cmpl   $0x0,0x8(%ebp)
 804915a:	74 06                	je     8049162 <_exit+0x3e>
 804915c:	b8 01 00 00 00       	mov    $0x1,%eax
 8049161:	82 90 8b 5d fc c9 c3 	adcb   $0xc3,-0x3603a275(%eax)

08049168 <open>:
 8049168:	55                   	push   %ebp
 8049169:	89 e5                	mov    %esp,%ebp
 804916b:	e8 6a ff ff ff       	call   80490da <__x86.get_pc_thunk.ax>
 8049170:	05 90 de 00 00       	add    $0xde90,%eax
 8049175:	ff 75 0c             	pushl  0xc(%ebp)
 8049178:	ff 75 08             	pushl  0x8(%ebp)
 804917b:	6a 05                	push   $0x5
 804917d:	e8 60 ff ff ff       	call   80490e2 <syscall>
 8049182:	83 c4 0c             	add    $0xc,%esp
 8049185:	c9                   	leave  
 8049186:	c3                   	ret    

08049187 <read>:
 8049187:	55                   	push   %ebp
 8049188:	89 e5                	mov    %esp,%ebp
 804918a:	e8 4b ff ff ff       	call   80490da <__x86.get_pc_thunk.ax>
 804918f:	05 71 de 00 00       	add    $0xde71,%eax
 8049194:	ff 75 10             	pushl  0x10(%ebp)
 8049197:	ff 75 0c             	pushl  0xc(%ebp)
 804919a:	ff 75 08             	pushl  0x8(%ebp)
 804919d:	6a 03                	push   $0x3
 804919f:	e8 3e ff ff ff       	call   80490e2 <syscall>
 80491a4:	83 c4 10             	add    $0x10,%esp
 80491a7:	c9                   	leave  
 80491a8:	c3                   	ret    

080491a9 <write>:
 80491a9:	55                   	push   %ebp
 80491aa:	89 e5                	mov    %esp,%ebp
 80491ac:	e8 29 ff ff ff       	call   80490da <__x86.get_pc_thunk.ax>
 80491b1:	05 4f de 00 00       	add    $0xde4f,%eax
 80491b6:	ff 75 10             	pushl  0x10(%ebp)
 80491b9:	ff 75 0c             	pushl  0xc(%ebp)
 80491bc:	ff 75 08             	pushl  0x8(%ebp)
 80491bf:	6a 04                	push   $0x4
 80491c1:	e8 1c ff ff ff       	call   80490e2 <syscall>
 80491c6:	83 c4 10             	add    $0x10,%esp
 80491c9:	c9                   	leave  
 80491ca:	c3                   	ret    

080491cb <lseek>:
 80491cb:	55                   	push   %ebp
 80491cc:	89 e5                	mov    %esp,%ebp
 80491ce:	e8 07 ff ff ff       	call   80490da <__x86.get_pc_thunk.ax>
 80491d3:	05 2d de 00 00       	add    $0xde2d,%eax
 80491d8:	ff 75 10             	pushl  0x10(%ebp)
 80491db:	ff 75 0c             	pushl  0xc(%ebp)
 80491de:	ff 75 08             	pushl  0x8(%ebp)
 80491e1:	6a 13                	push   $0x13
 80491e3:	e8 fa fe ff ff       	call   80490e2 <syscall>
 80491e8:	83 c4 10             	add    $0x10,%esp
 80491eb:	c9                   	leave  
 80491ec:	c3                   	ret    

080491ed <sbrk>:
 80491ed:	55                   	push   %ebp
 80491ee:	89 e5                	mov    %esp,%ebp
 80491f0:	53                   	push   %ebx
 80491f1:	83 ec 10             	sub    $0x10,%esp
 80491f4:	e8 e5 fe ff ff       	call   80490de <__x86.get_pc_thunk.bx>
 80491f9:	81 c3 07 de 00 00    	add    $0xde07,%ebx
 80491ff:	8b 83 c0 0f 00 00    	mov    0xfc0(%ebx),%eax
 8049205:	85 c0                	test   %eax,%eax
 8049207:	75 0c                	jne    8049215 <sbrk+0x28>
 8049209:	c7 c0 64 6e 08 08    	mov    $0x8086e64,%eax
 804920f:	89 83 c0 0f 00 00    	mov    %eax,0xfc0(%ebx)
 8049215:	8b 93 c0 0f 00 00    	mov    0xfc0(%ebx),%edx
 804921b:	8b 45 08             	mov    0x8(%ebp),%eax
 804921e:	01 d0                	add    %edx,%eax
 8049220:	50                   	push   %eax
 8049221:	6a 2d                	push   $0x2d
 8049223:	e8 ba fe ff ff       	call   80490e2 <syscall>
 8049228:	83 c4 08             	add    $0x8,%esp
 804922b:	85 c0                	test   %eax,%eax
 804922d:	74 06                	je     8049235 <sbrk+0x48>
 804922f:	b8 01 00 00 00       	mov    $0x1,%eax
 8049234:	82 8b 83 c0 0f 00 00 	orb    $0x0,0xfc083(%ebx)
 804923b:	89 45 f8             	mov    %eax,-0x8(%ebp)
 804923e:	8b 93 c0 0f 00 00    	mov    0xfc0(%ebx),%edx
 8049244:	8b 45 08             	mov    0x8(%ebp),%eax
 8049247:	01 d0                	add    %edx,%eax
 8049249:	89 83 c0 0f 00 00    	mov    %eax,0xfc0(%ebx)
 804924f:	8b 45 f8             	mov    -0x8(%ebp),%eax
 8049252:	8b 5d fc             	mov    -0x4(%ebp),%ebx
 8049255:	c9                   	leave  
 8049256:	c3                   	ret    

08049257 <close>:
 8049257:	55                   	push   %ebp
 8049258:	89 e5                	mov    %esp,%ebp
 804925a:	e8 7b fe ff ff       	call   80490da <__x86.get_pc_thunk.ax>
 804925f:	05 a1 dd 00 00       	add    $0xdda1,%eax
 8049264:	ff 75 08             	pushl  0x8(%ebp)
 8049267:	6a 06                	push   $0x6
 8049269:	e8 74 fe ff ff       	call   80490e2 <syscall>
 804926e:	83 c4 08             	add    $0x8,%esp
 8049271:	c9                   	leave  
 8049272:	c3                   	ret    

08049273 <fstat>:
 8049273:	55                   	push   %ebp
 8049274:	89 e5                	mov    %esp,%ebp
 8049276:	e8 5f fe ff ff       	call   80490da <__x86.get_pc_thunk.ax>
 804927b:	05 85 dd 00 00       	add    $0xdd85,%eax
 8049280:	8b 45 0c             	mov    0xc(%ebp),%eax
 8049283:	c7 40 04 00 20 00 00 	movl   $0x2000,0x4(%eax)
 804928a:	b8 00 00 00 00       	mov    $0x0,%eax
 804928f:	5d                   	pop    %ebp
 8049290:	c3                   	ret    

08049291 <isatty>:
 8049291:	55                   	push   %ebp
 8049292:	89 e5                	mov    %esp,%ebp
 8049294:	e8 41 fe ff ff       	call   80490da <__x86.get_pc_thunk.ax>
 8049299:	05 67 dd 00 00       	add    $0xdd67,%eax
 804929e:	b8 00 00 00 00       	mov    $0x0,%eax
 80492a3:	5d                   	pop    %ebp
 80492a4:	c3                   	ret    

080492a5 <out_longbyte>:
 80492a5:	55                   	push   %ebp
 80492a6:	89 e5                	mov    %esp,%ebp
 80492a8:	83 ec 04             	sub    $0x4,%esp
 80492ab:	e8 2a fe ff ff       	call   80490da <__x86.get_pc_thunk.ax>
 80492b0:	05 50 dd 00 00       	add    $0xdd50,%eax
 80492b5:	8b 45 08             	mov    0x8(%ebp),%eax
 80492b8:	66 89 45 fc          	mov    %ax,-0x4(%ebp)
 80492bc:	8b 45 0c             	mov    0xc(%ebp),%eax
 80492bf:	0f b7 55 fc          	movzwl -0x4(%ebp),%edx
 80492c3:	ef                   	out    %eax,(%dx)
 80492c4:	90                   	nop
 80492c5:	c9                   	leave  
 80492c6:	c3                   	ret    

080492c7 <audio_pause>:
 80492c7:	55                   	push   %ebp
 80492c8:	89 e5                	mov    %esp,%ebp
 80492ca:	e8 0b fe ff ff       	call   80490da <__x86.get_pc_thunk.ax>
 80492cf:	05 31 dd 00 00       	add    $0xdd31,%eax
 80492d4:	ff 75 08             	pushl  0x8(%ebp)
 80492d7:	68 c1 00 00 00       	push   $0xc1
 80492dc:	e8 c4 ff ff ff       	call   80492a5 <out_longbyte>
 80492e1:	83 c4 08             	add    $0x8,%esp
 80492e4:	90                   	nop
 80492e5:	c9                   	leave  
 80492e6:	c3                   	ret    

080492e7 <audio_write>:
 80492e7:	55                   	push   %ebp
 80492e8:	89 e5                	mov    %esp,%ebp
 80492ea:	e8 eb fd ff ff       	call   80490da <__x86.get_pc_thunk.ax>
 80492ef:	05 11 dd 00 00       	add    $0xdd11,%eax
 80492f4:	8b 45 08             	mov    0x8(%ebp),%eax
 80492f7:	50                   	push   %eax
 80492f8:	68 c0 00 00 00       	push   $0xc0
 80492fd:	e8 a3 ff ff ff       	call   80492a5 <out_longbyte>
 8049302:	83 c4 08             	add    $0x8,%esp
 8049305:	90                   	nop
 8049306:	c9                   	leave  
 8049307:	c3                   	ret    

08049308 <out_byte>:
 8049308:	55                   	push   %ebp
 8049309:	89 e5                	mov    %esp,%ebp
 804930b:	83 ec 08             	sub    $0x8,%esp
 804930e:	e8 c7 fd ff ff       	call   80490da <__x86.get_pc_thunk.ax>
 8049313:	05 ed dc 00 00       	add    $0xdced,%eax
 8049318:	8b 45 08             	mov    0x8(%ebp),%eax
 804931b:	8b 55 0c             	mov    0xc(%ebp),%edx
 804931e:	66 89 45 fc          	mov    %ax,-0x4(%ebp)
 8049322:	89 d0                	mov    %edx,%eax
 8049324:	88 45 f8             	mov    %al,-0x8(%ebp)
 8049327:	0f b6 45 f8          	movzbl -0x8(%ebp),%eax
 804932b:	0f b7 55 fc          	movzwl -0x4(%ebp),%edx
 804932f:	ee                   	out    %al,(%dx)
 8049330:	90                   	nop
 8049331:	c9                   	leave  
 8049332:	c3                   	ret    

08049333 <cli>:
 8049333:	55                   	push   %ebp
 8049334:	89 e5                	mov    %esp,%ebp
 8049336:	e8 9f fd ff ff       	call   80490da <__x86.get_pc_thunk.ax>
 804933b:	05 c5 dc 00 00       	add    $0xdcc5,%eax
 8049340:	fa                   	cli    
 8049341:	90                   	nop
 8049342:	5d                   	pop    %ebp
 8049343:	c3                   	ret    

08049344 <init_timer>:
 8049344:	55                   	push   %ebp
 8049345:	89 e5                	mov    %esp,%ebp
 8049347:	53                   	push   %ebx
 8049348:	83 ec 14             	sub    $0x14,%esp
 804934b:	e8 8e fd ff ff       	call   80490de <__x86.get_pc_thunk.bx>
 8049350:	81 c3 b0 dc 00 00    	add    $0xdcb0,%ebx
 8049356:	c7 45 f4 9b 2e 00 00 	movl   $0x2e9b,-0xc(%ebp)
 804935d:	81 7d f4 ff ff 00 00 	cmpl   $0xffff,-0xc(%ebp)
 8049364:	7e 34                	jle    804939a <init_timer+0x56>
 8049366:	e8 c8 ff ff ff       	call   8049333 <cli>
 804936b:	83 ec 0c             	sub    $0xc,%esp
 804936e:	8d 83 e0 c0 ff ff    	lea    -0x3f20(%ebx),%eax
 8049374:	50                   	push   %eax
 8049375:	8d 83 54 c1 ff ff    	lea    -0x3eac(%ebx),%eax
 804937b:	50                   	push   %eax
 804937c:	6a 09                	push   $0x9
 804937e:	8d 83 f0 c0 ff ff    	lea    -0x3f10(%ebx),%eax
 8049384:	50                   	push   %eax
 8049385:	8d 83 0c c1 ff ff    	lea    -0x3ef4(%ebx),%eax
 804938b:	50                   	push   %eax
 804938c:	e8 3f 1c 00 00       	call   804afd0 <printf>
 8049391:	83 c4 20             	add    $0x20,%esp
 8049394:	b8 01 00 00 00       	mov    $0x1,%eax
 8049399:	82 83 ec 08 6a 34 6a 	addb   $0x6a,0x346a08ec(%ebx)
 80493a0:	43                   	inc    %ebx
 80493a1:	e8 62 ff ff ff       	call   8049308 <out_byte>
 80493a6:	83 c4 10             	add    $0x10,%esp
 80493a9:	8b 45 f4             	mov    -0xc(%ebp),%eax
 80493ac:	99                   	cltd   
 80493ad:	c1 ea 18             	shr    $0x18,%edx
 80493b0:	01 d0                	add    %edx,%eax
 80493b2:	0f b6 c0             	movzbl %al,%eax
 80493b5:	29 d0                	sub    %edx,%eax
 80493b7:	0f be c0             	movsbl %al,%eax
 80493ba:	83 ec 08             	sub    $0x8,%esp
 80493bd:	50                   	push   %eax
 80493be:	6a 40                	push   $0x40
 80493c0:	e8 43 ff ff ff       	call   8049308 <out_byte>
 80493c5:	83 c4 10             	add    $0x10,%esp
 80493c8:	8b 45 f4             	mov    -0xc(%ebp),%eax
 80493cb:	8d 90 ff 00 00 00    	lea    0xff(%eax),%edx
 80493d1:	85 c0                	test   %eax,%eax
 80493d3:	0f 48 c2             	cmovs  %edx,%eax
 80493d6:	c1 f8 08             	sar    $0x8,%eax
 80493d9:	0f be c0             	movsbl %al,%eax
 80493dc:	83 ec 08             	sub    $0x8,%esp
 80493df:	50                   	push   %eax
 80493e0:	6a 40                	push   $0x40
 80493e2:	e8 21 ff ff ff       	call   8049308 <out_byte>
 80493e7:	83 c4 10             	add    $0x10,%esp
 80493ea:	90                   	nop
 80493eb:	8b 5d fc             	mov    -0x4(%ebp),%ebx
 80493ee:	c9                   	leave  
 80493ef:	c3                   	ret    

080493f0 <cli>:
 80493f0:	55                   	push   %ebp
 80493f1:	89 e5                	mov    %esp,%ebp
 80493f3:	e8 e2 fc ff ff       	call   80490da <__x86.get_pc_thunk.ax>
 80493f8:	05 08 dc 00 00       	add    $0xdc08,%eax
 80493fd:	fa                   	cli    
 80493fe:	90                   	nop
 80493ff:	5d                   	pop    %ebp
 8049400:	c3                   	ret    

08049401 <draw_pixel>:
 8049401:	55                   	push   %ebp
 8049402:	89 e5                	mov    %esp,%ebp
 8049404:	53                   	push   %ebx
 8049405:	83 ec 04             	sub    $0x4,%esp
 8049408:	e8 d1 fc ff ff       	call   80490de <__x86.get_pc_thunk.bx>
 804940d:	81 c3 f3 db 00 00    	add    $0xdbf3,%ebx
 8049413:	83 7d 08 00          	cmpl   $0x0,0x8(%ebp)
 8049417:	78 18                	js     8049431 <draw_pixel+0x30>
 8049419:	83 7d 0c 00          	cmpl   $0x0,0xc(%ebp)
 804941d:	78 12                	js     8049431 <draw_pixel+0x30>
 804941f:	81 7d 08 c7 00 00 00 	cmpl   $0xc7,0x8(%ebp)
 8049426:	7f 09                	jg     8049431 <draw_pixel+0x30>
 8049428:	81 7d 0c 3f 01 00 00 	cmpl   $0x13f,0xc(%ebp)
 804942f:	7e 34                	jle    8049465 <draw_pixel+0x64>
 8049431:	e8 ba ff ff ff       	call   80493f0 <cli>
 8049436:	83 ec 0c             	sub    $0xc,%esp
 8049439:	8d 83 60 c1 ff ff    	lea    -0x3ea0(%ebx),%eax
 804943f:	50                   	push   %eax
 8049440:	8d 83 34 c2 ff ff    	lea    -0x3dcc(%ebx),%eax
 8049446:	50                   	push   %eax
 8049447:	6a 10                	push   $0x10
 8049449:	8d 83 94 c1 ff ff    	lea    -0x3e6c(%ebx),%eax
 804944f:	50                   	push   %eax
 8049450:	8d 83 b0 c1 ff ff    	lea    -0x3e50(%ebx),%eax
 8049456:	50                   	push   %eax
 8049457:	e8 74 1b 00 00       	call   804afd0 <printf>
 804945c:	83 c4 20             	add    $0x20,%esp
 804945f:	b8 01 00 00 00       	mov    $0x1,%eax
 8049464:	82 8b 83 20 04 00 00 	orb    $0x0,0x42083(%ebx)
 804946b:	8b 55 08             	mov    0x8(%ebp),%edx
 804946e:	89 d1                	mov    %edx,%ecx
 8049470:	c1 e1 08             	shl    $0x8,%ecx
 8049473:	8b 55 08             	mov    0x8(%ebp),%edx
 8049476:	c1 e2 06             	shl    $0x6,%edx
 8049479:	01 d1                	add    %edx,%ecx
 804947b:	8b 55 0c             	mov    0xc(%ebp),%edx
 804947e:	01 ca                	add    %ecx,%edx
 8049480:	01 d0                	add    %edx,%eax
 8049482:	8b 55 10             	mov    0x10(%ebp),%edx
 8049485:	88 10                	mov    %dl,(%eax)
 8049487:	90                   	nop
 8049488:	8b 5d fc             	mov    -0x4(%ebp),%ebx
 804948b:	c9                   	leave  
 804948c:	c3                   	ret    

0804948d <prepare_buffer>:
 804948d:	55                   	push   %ebp
 804948e:	89 e5                	mov    %esp,%ebp
 8049490:	53                   	push   %ebx
 8049491:	83 ec 04             	sub    $0x4,%esp
 8049494:	e8 41 fc ff ff       	call   80490da <__x86.get_pc_thunk.ax>
 8049499:	05 67 db 00 00       	add    $0xdb67,%eax
 804949e:	8b 90 20 04 00 00    	mov    0x420(%eax),%edx
 80494a4:	83 ec 04             	sub    $0x4,%esp
 80494a7:	68 00 fa 00 00       	push   $0xfa00
 80494ac:	6a 00                	push   $0x0
 80494ae:	52                   	push   %edx
 80494af:	89 c3                	mov    %eax,%ebx
 80494b1:	e8 f2 19 00 00       	call   804aea8 <memset>
 80494b6:	83 c4 10             	add    $0x10,%esp
 80494b9:	90                   	nop
 80494ba:	8b 5d fc             	mov    -0x4(%ebp),%ebx
 80494bd:	c9                   	leave  
 80494be:	c3                   	ret    

080494bf <display_buffer>:
 80494bf:	55                   	push   %ebp
 80494c0:	89 e5                	mov    %esp,%ebp
 80494c2:	57                   	push   %edi
 80494c3:	56                   	push   %esi
 80494c4:	53                   	push   %ebx
 80494c5:	e8 10 fc ff ff       	call   80490da <__x86.get_pc_thunk.ax>
 80494ca:	05 36 db 00 00       	add    $0xdb36,%eax
 80494cf:	8b 80 20 04 00 00    	mov    0x420(%eax),%eax
 80494d5:	ba 80 3e 00 00       	mov    $0x3e80,%edx
 80494da:	bb 00 00 0a 00       	mov    $0xa0000,%ebx
 80494df:	89 d1                	mov    %edx,%ecx
 80494e1:	89 c6                	mov    %eax,%esi
 80494e3:	89 df                	mov    %ebx,%edi
 80494e5:	fc                   	cld    
 80494e6:	f3 a5                	rep movsl %ds:(%esi),%es:(%edi)
 80494e8:	90                   	nop
 80494e9:	5b                   	pop    %ebx
 80494ea:	5e                   	pop    %esi
 80494eb:	5f                   	pop    %edi
 80494ec:	5d                   	pop    %ebp
 80494ed:	c3                   	ret    

080494ee <draw_character>:
 80494ee:	55                   	push   %ebp
 80494ef:	89 e5                	mov    %esp,%ebp
 80494f1:	53                   	push   %ebx
 80494f2:	83 ec 24             	sub    $0x24,%esp
 80494f5:	e8 e4 fb ff ff       	call   80490de <__x86.get_pc_thunk.bx>
 80494fa:	81 c3 06 db 00 00    	add    $0xdb06,%ebx
 8049500:	8b 45 08             	mov    0x8(%ebp),%eax
 8049503:	88 45 e4             	mov    %al,-0x1c(%ebp)
 8049506:	80 7d e4 00          	cmpb   $0x0,-0x1c(%ebp)
 804950a:	79 34                	jns    8049540 <draw_character+0x52>
 804950c:	e8 df fe ff ff       	call   80493f0 <cli>
 8049511:	83 ec 0c             	sub    $0xc,%esp
 8049514:	8d 83 f8 c1 ff ff    	lea    -0x3e08(%ebx),%eax
 804951a:	50                   	push   %eax
 804951b:	8d 83 24 c2 ff ff    	lea    -0x3ddc(%ebx),%eax
 8049521:	50                   	push   %eax
 8049522:	6a 1a                	push   $0x1a
 8049524:	8d 83 09 c2 ff ff    	lea    -0x3df7(%ebx),%eax
 804952a:	50                   	push   %eax
 804952b:	8d 83 b0 c1 ff ff    	lea    -0x3e50(%ebx),%eax
 8049531:	50                   	push   %eax
 8049532:	e8 99 1a 00 00       	call   804afd0 <printf>
 8049537:	83 c4 20             	add    $0x20,%esp
 804953a:	b8 01 00 00 00       	mov    $0x1,%eax
 804953f:	82 0f be             	orb    $0xbe,(%edi)
 8049542:	45                   	inc    %ebp
 8049543:	e4 8d                	in     $0x8d,%al
 8049545:	14 c5                	adc    $0xc5,%al
 8049547:	00 00                	add    %al,(%eax)
 8049549:	00 00                	add    %al,(%eax)
 804954b:	c7 c0 20 70 05 08    	mov    $0x8057020,%eax
 8049551:	01 d0                	add    %edx,%eax
 8049553:	89 45 ec             	mov    %eax,-0x14(%ebp)
 8049556:	c7 45 f4 00 00 00 00 	movl   $0x0,-0xc(%ebp)
 804955d:	eb 55                	jmp    80495b4 <draw_character+0xc6>
 804955f:	c7 45 f0 00 00 00 00 	movl   $0x0,-0x10(%ebp)
 8049566:	eb 42                	jmp    80495aa <draw_character+0xbc>
 8049568:	8b 55 f4             	mov    -0xc(%ebp),%edx
 804956b:	8b 45 ec             	mov    -0x14(%ebp),%eax
 804956e:	01 d0                	add    %edx,%eax
 8049570:	0f b6 00             	movzbl (%eax),%eax
 8049573:	0f be d0             	movsbl %al,%edx
 8049576:	8b 45 f0             	mov    -0x10(%ebp),%eax
 8049579:	89 c1                	mov    %eax,%ecx
 804957b:	d3 fa                	sar    %cl,%edx
 804957d:	89 d0                	mov    %edx,%eax
 804957f:	83 e0 01             	and    $0x1,%eax
 8049582:	85 c0                	test   %eax,%eax
 8049584:	74 20                	je     80495a6 <draw_character+0xb8>
 8049586:	8b 55 10             	mov    0x10(%ebp),%edx
 8049589:	8b 45 f0             	mov    -0x10(%ebp),%eax
 804958c:	01 c2                	add    %eax,%edx
 804958e:	8b 4d 0c             	mov    0xc(%ebp),%ecx
 8049591:	8b 45 f4             	mov    -0xc(%ebp),%eax
 8049594:	01 c8                	add    %ecx,%eax
 8049596:	83 ec 04             	sub    $0x4,%esp
 8049599:	ff 75 14             	pushl  0x14(%ebp)
 804959c:	52                   	push   %edx
 804959d:	50                   	push   %eax
 804959e:	e8 5e fe ff ff       	call   8049401 <draw_pixel>
 80495a3:	83 c4 10             	add    $0x10,%esp
 80495a6:	83 45 f0 01          	addl   $0x1,-0x10(%ebp)
 80495aa:	83 7d f0 07          	cmpl   $0x7,-0x10(%ebp)
 80495ae:	7e b8                	jle    8049568 <draw_character+0x7a>
 80495b0:	83 45 f4 01          	addl   $0x1,-0xc(%ebp)
 80495b4:	83 7d f4 07          	cmpl   $0x7,-0xc(%ebp)
 80495b8:	7e a5                	jle    804955f <draw_character+0x71>
 80495ba:	90                   	nop
 80495bb:	8b 5d fc             	mov    -0x4(%ebp),%ebx
 80495be:	c9                   	leave  
 80495bf:	c3                   	ret    

080495c0 <draw_string>:
 80495c0:	55                   	push   %ebp
 80495c1:	89 e5                	mov    %esp,%ebp
 80495c3:	83 ec 08             	sub    $0x8,%esp
 80495c6:	e8 0f fb ff ff       	call   80490da <__x86.get_pc_thunk.ax>
 80495cb:	05 35 da 00 00       	add    $0xda35,%eax
 80495d0:	eb 3b                	jmp    804960d <draw_string+0x4d>
 80495d2:	8b 45 08             	mov    0x8(%ebp),%eax
 80495d5:	8d 50 01             	lea    0x1(%eax),%edx
 80495d8:	89 55 08             	mov    %edx,0x8(%ebp)
 80495db:	0f b6 00             	movzbl (%eax),%eax
 80495de:	0f be c0             	movsbl %al,%eax
 80495e1:	ff 75 14             	pushl  0x14(%ebp)
 80495e4:	ff 75 10             	pushl  0x10(%ebp)
 80495e7:	ff 75 0c             	pushl  0xc(%ebp)
 80495ea:	50                   	push   %eax
 80495eb:	e8 fe fe ff ff       	call   80494ee <draw_character>
 80495f0:	83 c4 10             	add    $0x10,%esp
 80495f3:	81 7d 10 37 01 00 00 	cmpl   $0x137,0x10(%ebp)
 80495fa:	7e 0d                	jle    8049609 <draw_string+0x49>
 80495fc:	83 45 0c 08          	addl   $0x8,0xc(%ebp)
 8049600:	c7 45 10 00 00 00 00 	movl   $0x0,0x10(%ebp)
 8049607:	eb 04                	jmp    804960d <draw_string+0x4d>
 8049609:	83 45 10 08          	addl   $0x8,0x10(%ebp)
 804960d:	8b 45 08             	mov    0x8(%ebp),%eax
 8049610:	0f b6 00             	movzbl (%eax),%eax
 8049613:	84 c0                	test   %al,%al
 8049615:	75 bb                	jne    80495d2 <draw_string+0x12>
 8049617:	90                   	nop
 8049618:	c9                   	leave  
 8049619:	c3                   	ret    

0804961a <in_byte>:
 804961a:	55                   	push   %ebp
 804961b:	89 e5                	mov    %esp,%ebp
 804961d:	83 ec 14             	sub    $0x14,%esp
 8049620:	e8 b5 fa ff ff       	call   80490da <__x86.get_pc_thunk.ax>
 8049625:	05 db d9 00 00       	add    $0xd9db,%eax
 804962a:	8b 45 08             	mov    0x8(%ebp),%eax
 804962d:	66 89 45 ec          	mov    %ax,-0x14(%ebp)
 8049631:	0f b7 45 ec          	movzwl -0x14(%ebp),%eax
 8049635:	89 c2                	mov    %eax,%edx
 8049637:	ec                   	in     (%dx),%al
 8049638:	88 45 ff             	mov    %al,-0x1(%ebp)
 804963b:	0f b6 45 ff          	movzbl -0x1(%ebp),%eax
 804963f:	c9                   	leave  
 8049640:	c3                   	ret    

08049641 <out_byte>:
 8049641:	55                   	push   %ebp
 8049642:	89 e5                	mov    %esp,%ebp
 8049644:	83 ec 08             	sub    $0x8,%esp
 8049647:	e8 8e fa ff ff       	call   80490da <__x86.get_pc_thunk.ax>
 804964c:	05 b4 d9 00 00       	add    $0xd9b4,%eax
 8049651:	8b 45 08             	mov    0x8(%ebp),%eax
 8049654:	8b 55 0c             	mov    0xc(%ebp),%edx
 8049657:	66 89 45 fc          	mov    %ax,-0x4(%ebp)
 804965b:	89 d0                	mov    %edx,%eax
 804965d:	88 45 f8             	mov    %al,-0x8(%ebp)
 8049660:	0f b6 45 f8          	movzbl -0x8(%ebp),%eax
 8049664:	0f b7 55 fc          	movzwl -0x4(%ebp),%edx
 8049668:	ee                   	out    %al,(%dx)
 8049669:	90                   	nop
 804966a:	c9                   	leave  
 804966b:	c3                   	ret    

0804966c <write_palette>:
 804966c:	55                   	push   %ebp
 804966d:	89 e5                	mov    %esp,%ebp
 804966f:	83 ec 10             	sub    $0x10,%esp
 8049672:	e8 63 fa ff ff       	call   80490da <__x86.get_pc_thunk.ax>
 8049677:	05 89 d9 00 00       	add    $0xd989,%eax
 804967c:	8b 45 08             	mov    0x8(%ebp),%eax
 804967f:	89 45 f8             	mov    %eax,-0x8(%ebp)
 8049682:	6a 00                	push   $0x0
 8049684:	68 c8 03 00 00       	push   $0x3c8
 8049689:	e8 b3 ff ff ff       	call   8049641 <out_byte>
 804968e:	83 c4 08             	add    $0x8,%esp
 8049691:	c7 45 fc 00 00 00 00 	movl   $0x0,-0x4(%ebp)
 8049698:	eb 78                	jmp    8049712 <write_palette+0xa6>
 804969a:	8b 45 fc             	mov    -0x4(%ebp),%eax
 804969d:	8d 14 85 00 00 00 00 	lea    0x0(,%eax,4),%edx
 80496a4:	8b 45 f8             	mov    -0x8(%ebp),%eax
 80496a7:	01 d0                	add    %edx,%eax
 80496a9:	0f b6 00             	movzbl (%eax),%eax
 80496ac:	c0 e8 02             	shr    $0x2,%al
 80496af:	0f be c0             	movsbl %al,%eax
 80496b2:	50                   	push   %eax
 80496b3:	68 c9 03 00 00       	push   $0x3c9
 80496b8:	e8 84 ff ff ff       	call   8049641 <out_byte>
 80496bd:	83 c4 08             	add    $0x8,%esp
 80496c0:	8b 45 fc             	mov    -0x4(%ebp),%eax
 80496c3:	8d 14 85 00 00 00 00 	lea    0x0(,%eax,4),%edx
 80496ca:	8b 45 f8             	mov    -0x8(%ebp),%eax
 80496cd:	01 d0                	add    %edx,%eax
 80496cf:	0f b6 40 01          	movzbl 0x1(%eax),%eax
 80496d3:	c0 e8 02             	shr    $0x2,%al
 80496d6:	0f be c0             	movsbl %al,%eax
 80496d9:	50                   	push   %eax
 80496da:	68 c9 03 00 00       	push   $0x3c9
 80496df:	e8 5d ff ff ff       	call   8049641 <out_byte>
 80496e4:	83 c4 08             	add    $0x8,%esp
 80496e7:	8b 45 fc             	mov    -0x4(%ebp),%eax
 80496ea:	8d 14 85 00 00 00 00 	lea    0x0(,%eax,4),%edx
 80496f1:	8b 45 f8             	mov    -0x8(%ebp),%eax
 80496f4:	01 d0                	add    %edx,%eax
 80496f6:	0f b6 40 02          	movzbl 0x2(%eax),%eax
 80496fa:	c0 e8 02             	shr    $0x2,%al
 80496fd:	0f be c0             	movsbl %al,%eax
 8049700:	50                   	push   %eax
 8049701:	68 c9 03 00 00       	push   $0x3c9
 8049706:	e8 36 ff ff ff       	call   8049641 <out_byte>
 804970b:	83 c4 08             	add    $0x8,%esp
 804970e:	83 45 fc 01          	addl   $0x1,-0x4(%ebp)
 8049712:	8b 45 fc             	mov    -0x4(%ebp),%eax
 8049715:	3b 45 0c             	cmp    0xc(%ebp),%eax
 8049718:	7c 80                	jl     804969a <write_palette+0x2e>
 804971a:	90                   	nop
 804971b:	c9                   	leave  
 804971c:	c3                   	ret    

0804971d <read_palette>:
 804971d:	55                   	push   %ebp
 804971e:	89 e5                	mov    %esp,%ebp
 8049720:	53                   	push   %ebx
 8049721:	83 ec 14             	sub    $0x14,%esp
 8049724:	e8 b5 f9 ff ff       	call   80490de <__x86.get_pc_thunk.bx>
 8049729:	81 c3 d7 d8 00 00    	add    $0xd8d7,%ebx
 804972f:	6a 00                	push   $0x0
 8049731:	68 c7 03 00 00       	push   $0x3c7
 8049736:	e8 06 ff ff ff       	call   8049641 <out_byte>
 804973b:	83 c4 08             	add    $0x8,%esp
 804973e:	c7 45 f4 00 00 00 00 	movl   $0x0,-0xc(%ebp)
 8049745:	eb 52                	jmp    8049799 <read_palette+0x7c>
 8049747:	68 c9 03 00 00       	push   $0x3c9
 804974c:	e8 c9 fe ff ff       	call   804961a <in_byte>
 8049751:	83 c4 04             	add    $0x4,%esp
 8049754:	88 45 f3             	mov    %al,-0xd(%ebp)
 8049757:	68 c9 03 00 00       	push   $0x3c9
 804975c:	e8 b9 fe ff ff       	call   804961a <in_byte>
 8049761:	83 c4 04             	add    $0x4,%esp
 8049764:	88 45 f2             	mov    %al,-0xe(%ebp)
 8049767:	68 c9 03 00 00       	push   $0x3c9
 804976c:	e8 a9 fe ff ff       	call   804961a <in_byte>
 8049771:	83 c4 04             	add    $0x4,%esp
 8049774:	88 45 f1             	mov    %al,-0xf(%ebp)
 8049777:	0f b6 4d f1          	movzbl -0xf(%ebp),%ecx
 804977b:	0f b6 55 f2          	movzbl -0xe(%ebp),%edx
 804977f:	0f b6 45 f3          	movzbl -0xd(%ebp),%eax
 8049783:	51                   	push   %ecx
 8049784:	52                   	push   %edx
 8049785:	50                   	push   %eax
 8049786:	8d 83 3f c2 ff ff    	lea    -0x3dc1(%ebx),%eax
 804978c:	50                   	push   %eax
 804978d:	e8 3e 18 00 00       	call   804afd0 <printf>
 8049792:	83 c4 10             	add    $0x10,%esp
 8049795:	83 45 f4 01          	addl   $0x1,-0xc(%ebp)
 8049799:	81 7d f4 ff 00 00 00 	cmpl   $0xff,-0xc(%ebp)
 80497a0:	7e a5                	jle    8049747 <read_palette+0x2a>
 80497a2:	90                   	nop
 80497a3:	8b 5d fc             	mov    -0x4(%ebp),%ebx
 80497a6:	c9                   	leave  
 80497a7:	c3                   	ret    

080497a8 <keyboard_event>:
 80497a8:	55                   	push   %ebp
 80497a9:	89 e5                	mov    %esp,%ebp
 80497ab:	e8 2a f9 ff ff       	call   80490da <__x86.get_pc_thunk.ax>
 80497b0:	05 50 d8 00 00       	add    $0xd850,%eax
 80497b5:	90                   	nop
 80497b6:	5d                   	pop    %ebp
 80497b7:	c3                   	ret    

080497b8 <wait_intr>:
 80497b8:	55                   	push   %ebp
 80497b9:	89 e5                	mov    %esp,%ebp
 80497bb:	e8 1a f9 ff ff       	call   80490da <__x86.get_pc_thunk.ax>
 80497c0:	05 40 d8 00 00       	add    $0xd840,%eax
 80497c5:	f4                   	hlt    
 80497c6:	90                   	nop
 80497c7:	5d                   	pop    %ebp
 80497c8:	c3                   	ret    

080497c9 <timer_event>:
 80497c9:	55                   	push   %ebp
 80497ca:	89 e5                	mov    %esp,%ebp
 80497cc:	e8 09 f9 ff ff       	call   80490da <__x86.get_pc_thunk.ax>
 80497d1:	05 2f d8 00 00       	add    $0xd82f,%eax
 80497d6:	90                   	nop
 80497d7:	5d                   	pop    %ebp
 80497d8:	c3                   	ret    

080497d9 <audio_event>:
 80497d9:	55                   	push   %ebp
 80497da:	89 e5                	mov    %esp,%ebp
 80497dc:	e8 f9 f8 ff ff       	call   80490da <__x86.get_pc_thunk.ax>
 80497e1:	05 1f d8 00 00       	add    $0xd81f,%eax
 80497e6:	c7 80 04 fe 02 00 01 	movl   $0x1,0x2fe04(%eax)
 80497ed:	00 00 00 
 80497f0:	90                   	nop
 80497f1:	5d                   	pop    %ebp
 80497f2:	c3                   	ret    

080497f3 <write_audio_data>:
 80497f3:	55                   	push   %ebp
 80497f4:	89 e5                	mov    %esp,%ebp
 80497f6:	53                   	push   %ebx
 80497f7:	83 ec 04             	sub    $0x4,%esp
 80497fa:	e8 df f8 ff ff       	call   80490de <__x86.get_pc_thunk.bx>
 80497ff:	81 c3 01 d8 00 00    	add    $0xd801,%ebx
 8049805:	8b 83 e0 09 01 00    	mov    0x109e0(%ebx),%eax
 804980b:	85 c0                	test   %eax,%eax
 804980d:	74 37                	je     8049846 <write_audio_data+0x53>
 804980f:	8b 83 e0 09 01 00    	mov    0x109e0(%ebx),%eax
 8049815:	50                   	push   %eax
 8049816:	68 00 f4 01 00       	push   $0x1f400
 804981b:	6a 01                	push   $0x1
 804981d:	8d 83 04 0a 01 00    	lea    0x10a04(%ebx),%eax
 8049823:	50                   	push   %eax
 8049824:	e8 c7 04 00 00       	call   8049cf0 <fread>
 8049829:	83 c4 10             	add    $0x10,%esp
 804982c:	89 83 00 0a 01 00    	mov    %eax,0x10a00(%ebx)
 8049832:	83 ec 0c             	sub    $0xc,%esp
 8049835:	8d 83 00 0a 01 00    	lea    0x10a00(%ebx),%eax
 804983b:	50                   	push   %eax
 804983c:	e8 a6 fa ff ff       	call   80492e7 <audio_write>
 8049841:	83 c4 10             	add    $0x10,%esp
 8049844:	eb 01                	jmp    8049847 <write_audio_data+0x54>
 8049846:	90                   	nop
 8049847:	8b 5d fc             	mov    -0x4(%ebp),%ebx
 804984a:	c9                   	leave  
 804984b:	c3                   	ret    

0804984c <main_loop>:
 804984c:	55                   	push   %ebp
 804984d:	89 e5                	mov    %esp,%ebp
 804984f:	53                   	push   %ebx
 8049850:	83 ec 14             	sub    $0x14,%esp
 8049853:	e8 86 f8 ff ff       	call   80490de <__x86.get_pc_thunk.bx>
 8049858:	81 c3 a8 d7 00 00    	add    $0xd7a8,%ebx
 804985e:	8d 83 e0 c2 ff ff    	lea    -0x3d20(%ebx),%eax
 8049864:	50                   	push   %eax
 8049865:	6a 23                	push   $0x23
 8049867:	8d 83 58 c2 ff ff    	lea    -0x3da8(%ebx),%eax
 804986d:	50                   	push   %eax
 804986e:	8d 83 70 c2 ff ff    	lea    -0x3d90(%ebx),%eax
 8049874:	50                   	push   %eax
 8049875:	e8 56 17 00 00       	call   804afd0 <printf>
 804987a:	83 c4 10             	add    $0x10,%esp
 804987d:	83 ec 08             	sub    $0x8,%esp
 8049880:	8d 83 cb c2 ff ff    	lea    -0x3d35(%ebx),%eax
 8049886:	50                   	push   %eax
 8049887:	8d 83 ce c2 ff ff    	lea    -0x3d32(%ebx),%eax
 804988d:	50                   	push   %eax
 804988e:	e8 2d 02 00 00       	call   8049ac0 <fopen>
 8049893:	83 c4 10             	add    $0x10,%esp
 8049896:	89 83 e0 09 01 00    	mov    %eax,0x109e0(%ebx)
 804989c:	83 ec 08             	sub    $0x8,%esp
 804989f:	8d 83 d9 27 ff ff    	lea    -0xd827(%ebx),%eax
 80498a5:	50                   	push   %eax
 80498a6:	6a 02                	push   $0x2
 80498a8:	e8 64 f7 ff ff       	call   8049011 <add_irq_handle>
 80498ad:	83 c4 10             	add    $0x10,%esp
 80498b0:	83 ec 0c             	sub    $0xc,%esp
 80498b3:	6a 00                	push   $0x0
 80498b5:	e8 0d fa ff ff       	call   80492c7 <audio_pause>
 80498ba:	83 c4 10             	add    $0x10,%esp
 80498bd:	c7 45 f4 00 00 00 00 	movl   $0x0,-0xc(%ebp)
 80498c4:	e8 ef fe ff ff       	call   80497b8 <wait_intr>
 80498c9:	8b 83 04 fe 02 00    	mov    0x2fe04(%ebx),%eax
 80498cf:	85 c0                	test   %eax,%eax
 80498d1:	74 0f                	je     80498e2 <main_loop+0x96>
 80498d3:	e8 1b ff ff ff       	call   80497f3 <write_audio_data>
 80498d8:	c7 83 04 fe 02 00 00 	movl   $0x0,0x2fe04(%ebx)
 80498df:	00 00 00 
 80498e2:	8b 4d f4             	mov    -0xc(%ebp),%ecx
 80498e5:	ba 1f 85 eb 51       	mov    $0x51eb851f,%edx
 80498ea:	89 c8                	mov    %ecx,%eax
 80498ec:	f7 e2                	mul    %edx
 80498ee:	89 d0                	mov    %edx,%eax
 80498f0:	c1 e8 06             	shr    $0x6,%eax
 80498f3:	69 c0 c8 00 00 00    	imul   $0xc8,%eax,%eax
 80498f9:	29 c1                	sub    %eax,%ecx
 80498fb:	89 c8                	mov    %ecx,%eax
 80498fd:	85 c0                	test   %eax,%eax
 80498ff:	75 05                	jne    8049906 <main_loop+0xba>
 8049901:	e8 06 00 00 00       	call   804990c <roll_text>
 8049906:	83 45 f4 01          	addl   $0x1,-0xc(%ebp)
 804990a:	eb b8                	jmp    80498c4 <main_loop+0x78>

0804990c <roll_text>:
 804990c:	55                   	push   %ebp
 804990d:	89 e5                	mov    %esp,%ebp
 804990f:	53                   	push   %ebx
 8049910:	83 ec 14             	sub    $0x14,%esp
 8049913:	e8 c6 f7 ff ff       	call   80490de <__x86.get_pc_thunk.bx>
 8049918:	81 c3 e8 d6 00 00    	add    $0xd6e8,%ebx
 804991e:	8b 83 24 04 00 00    	mov    0x424(%ebx),%eax
 8049924:	c1 f8 03             	sar    $0x3,%eax
 8049927:	89 45 ec             	mov    %eax,-0x14(%ebp)
 804992a:	8b 45 ec             	mov    -0x14(%ebp),%eax
 804992d:	3d 97 00 00 00       	cmp    $0x97,%eax
 8049932:	0f 87 98 00 00 00    	ja     80499d0 <roll_text+0xc4>
 8049938:	81 7d ec 97 00 00 00 	cmpl   $0x97,-0x14(%ebp)
 804993f:	74 10                	je     8049951 <roll_text+0x45>
 8049941:	8b 83 24 04 00 00    	mov    0x424(%ebx),%eax
 8049947:	8b 55 ec             	mov    -0x14(%ebp),%edx
 804994a:	c1 e2 03             	shl    $0x3,%edx
 804994d:	29 d0                	sub    %edx,%eax
 804994f:	eb 05                	jmp    8049956 <roll_text+0x4a>
 8049951:	b8 00 00 00 00       	mov    $0x0,%eax
 8049956:	89 45 e8             	mov    %eax,-0x18(%ebp)
 8049959:	8b 45 ec             	mov    -0x14(%ebp),%eax
 804995c:	ba 97 00 00 00       	mov    $0x97,%edx
 8049961:	3d 97 00 00 00       	cmp    $0x97,%eax
 8049966:	0f 47 c2             	cmova  %edx,%eax
 8049969:	89 45 ec             	mov    %eax,-0x14(%ebp)
 804996c:	8b 45 ec             	mov    -0x14(%ebp),%eax
 804996f:	83 e8 01             	sub    $0x1,%eax
 8049972:	89 45 f4             	mov    %eax,-0xc(%ebp)
 8049975:	b8 c8 00 00 00       	mov    $0xc8,%eax
 804997a:	2b 45 e8             	sub    -0x18(%ebp),%eax
 804997d:	89 45 f0             	mov    %eax,-0x10(%ebp)
 8049980:	e8 08 fb ff ff       	call   804948d <prepare_buffer>
 8049985:	eb 28                	jmp    80499af <roll_text+0xa3>
 8049987:	83 6d f0 08          	subl   $0x8,-0x10(%ebp)
 804998b:	83 7d f0 00          	cmpl   $0x0,-0x10(%ebp)
 804998f:	78 26                	js     80499b7 <roll_text+0xab>
 8049991:	8b 45 f4             	mov    -0xc(%ebp),%eax
 8049994:	8b 84 83 40 04 00 00 	mov    0x440(%ebx,%eax,4),%eax
 804999b:	6a 0f                	push   $0xf
 804999d:	6a 00                	push   $0x0
 804999f:	ff 75 f0             	pushl  -0x10(%ebp)
 80499a2:	50                   	push   %eax
 80499a3:	e8 18 fc ff ff       	call   80495c0 <draw_string>
 80499a8:	83 c4 10             	add    $0x10,%esp
 80499ab:	83 6d f4 01          	subl   $0x1,-0xc(%ebp)
 80499af:	83 7d f4 00          	cmpl   $0x0,-0xc(%ebp)
 80499b3:	79 d2                	jns    8049987 <roll_text+0x7b>
 80499b5:	eb 01                	jmp    80499b8 <roll_text+0xac>
 80499b7:	90                   	nop
 80499b8:	e8 02 fb ff ff       	call   80494bf <display_buffer>
 80499bd:	8b 83 24 04 00 00    	mov    0x424(%ebx),%eax
 80499c3:	05 c8 00 00 00       	add    $0xc8,%eax
 80499c8:	89 83 24 04 00 00    	mov    %eax,0x424(%ebx)
 80499ce:	eb 01                	jmp    80499d1 <roll_text+0xc5>
 80499d0:	90                   	nop
 80499d1:	8b 5d fc             	mov    -0x4(%ebp),%ebx
 80499d4:	c9                   	leave  
 80499d5:	c3                   	ret    
 80499d6:	66 90                	xchg   %ax,%ax
 80499d8:	66 90                	xchg   %ax,%ax
 80499da:	66 90                	xchg   %ax,%ax
 80499dc:	66 90                	xchg   %ax,%ax
 80499de:	66 90                	xchg   %ax,%ax

080499e0 <_fopen_r>:
 80499e0:	55                   	push   %ebp
 80499e1:	89 e5                	mov    %esp,%ebp
 80499e3:	57                   	push   %edi
 80499e4:	56                   	push   %esi
 80499e5:	53                   	push   %ebx
 80499e6:	83 ec 2c             	sub    $0x2c,%esp
 80499e9:	8b 75 08             	mov    0x8(%ebp),%esi
 80499ec:	8d 45 e4             	lea    -0x1c(%ebp),%eax
 80499ef:	89 44 24 08          	mov    %eax,0x8(%esp)
 80499f3:	8b 45 10             	mov    0x10(%ebp),%eax
 80499f6:	89 34 24             	mov    %esi,(%esp)
 80499f9:	89 44 24 04          	mov    %eax,0x4(%esp)
 80499fd:	e8 8e 57 00 00       	call   804f190 <__sflags>
 8049a02:	85 c0                	test   %eax,%eax
 8049a04:	89 c7                	mov    %eax,%edi
 8049a06:	0f 84 7c 00 00 00    	je     8049a88 <_fopen_r+0xa8>
 8049a0c:	89 34 24             	mov    %esi,(%esp)
 8049a0f:	e8 ec 55 00 00       	call   804f000 <__sfp>
 8049a14:	85 c0                	test   %eax,%eax
 8049a16:	89 c3                	mov    %eax,%ebx
 8049a18:	74 6e                	je     8049a88 <_fopen_r+0xa8>
 8049a1a:	8b 45 e4             	mov    -0x1c(%ebp),%eax
 8049a1d:	c7 44 24 0c b6 01 00 	movl   $0x1b6,0xc(%esp)
 8049a24:	00 
 8049a25:	89 34 24             	mov    %esi,(%esp)
 8049a28:	89 44 24 08          	mov    %eax,0x8(%esp)
 8049a2c:	8b 45 0c             	mov    0xc(%ebp),%eax
 8049a2f:	89 44 24 04          	mov    %eax,0x4(%esp)
 8049a33:	e8 18 15 00 00       	call   804af50 <_open_r>
 8049a38:	85 c0                	test   %eax,%eax
 8049a3a:	78 3c                	js     8049a78 <_fopen_r+0x98>
 8049a3c:	66 89 7b 0c          	mov    %di,0xc(%ebx)
 8049a40:	81 e7 00 01 00 00    	and    $0x100,%edi
 8049a46:	66 89 43 0e          	mov    %ax,0xe(%ebx)
 8049a4a:	89 5b 1c             	mov    %ebx,0x1c(%ebx)
 8049a4d:	c7 43 20 70 b3 04 08 	movl   $0x804b370,0x20(%ebx)
 8049a54:	c7 43 24 d0 b3 04 08 	movl   $0x804b3d0,0x24(%ebx)
 8049a5b:	c7 43 28 40 b4 04 08 	movl   $0x804b440,0x28(%ebx)
 8049a62:	c7 43 2c 90 b4 04 08 	movl   $0x804b490,0x2c(%ebx)
 8049a69:	75 2d                	jne    8049a98 <_fopen_r+0xb8>
 8049a6b:	83 c4 2c             	add    $0x2c,%esp
 8049a6e:	89 d8                	mov    %ebx,%eax
 8049a70:	5b                   	pop    %ebx
 8049a71:	5e                   	pop    %esi
 8049a72:	5f                   	pop    %edi
 8049a73:	5d                   	pop    %ebp
 8049a74:	c3                   	ret    
 8049a75:	8d 76 00             	lea    0x0(%esi),%esi
 8049a78:	e8 93 56 00 00       	call   804f110 <__sfp_lock_acquire>
 8049a7d:	31 c0                	xor    %eax,%eax
 8049a7f:	66 89 43 0c          	mov    %ax,0xc(%ebx)
 8049a83:	e8 98 56 00 00       	call   804f120 <__sfp_lock_release>
 8049a88:	83 c4 2c             	add    $0x2c,%esp
 8049a8b:	31 db                	xor    %ebx,%ebx
 8049a8d:	89 d8                	mov    %ebx,%eax
 8049a8f:	5b                   	pop    %ebx
 8049a90:	5e                   	pop    %esi
 8049a91:	5f                   	pop    %edi
 8049a92:	5d                   	pop    %ebp
 8049a93:	c3                   	ret    
 8049a94:	8d 74 26 00          	lea    0x0(%esi,%eiz,1),%esi
 8049a98:	89 5c 24 04          	mov    %ebx,0x4(%esp)
 8049a9c:	89 34 24             	mov    %esi,(%esp)
 8049a9f:	c7 44 24 0c 02 00 00 	movl   $0x2,0xc(%esp)
 8049aa6:	00 
 8049aa7:	c7 44 24 08 00 00 00 	movl   $0x0,0x8(%esp)
 8049aae:	00 
 8049aaf:	e8 cc 05 00 00       	call   804a080 <_fseek_r>
 8049ab4:	83 c4 2c             	add    $0x2c,%esp
 8049ab7:	89 d8                	mov    %ebx,%eax
 8049ab9:	5b                   	pop    %ebx
 8049aba:	5e                   	pop    %esi
 8049abb:	5f                   	pop    %edi
 8049abc:	5d                   	pop    %ebp
 8049abd:	c3                   	ret    
 8049abe:	66 90                	xchg   %ax,%ax

08049ac0 <fopen>:
 8049ac0:	55                   	push   %ebp
 8049ac1:	89 e5                	mov    %esp,%ebp
 8049ac3:	83 ec 18             	sub    $0x18,%esp
 8049ac6:	e8 05 0b 00 00       	call   804a5d0 <__getreent>
 8049acb:	8b 55 0c             	mov    0xc(%ebp),%edx
 8049ace:	89 54 24 08          	mov    %edx,0x8(%esp)
 8049ad2:	8b 55 08             	mov    0x8(%ebp),%edx
 8049ad5:	89 04 24             	mov    %eax,(%esp)
 8049ad8:	89 54 24 04          	mov    %edx,0x4(%esp)
 8049adc:	e8 ff fe ff ff       	call   80499e0 <_fopen_r>
 8049ae1:	c9                   	leave  
 8049ae2:	c3                   	ret    
 8049ae3:	66 90                	xchg   %ax,%ax
 8049ae5:	66 90                	xchg   %ax,%ax
 8049ae7:	66 90                	xchg   %ax,%ax
 8049ae9:	66 90                	xchg   %ax,%ax
 8049aeb:	66 90                	xchg   %ax,%ax
 8049aed:	66 90                	xchg   %ax,%ax
 8049aef:	90                   	nop

08049af0 <_fread_r>:
 8049af0:	55                   	push   %ebp
 8049af1:	89 e5                	mov    %esp,%ebp
 8049af3:	57                   	push   %edi
 8049af4:	56                   	push   %esi
 8049af5:	53                   	push   %ebx
 8049af6:	83 ec 2c             	sub    $0x2c,%esp
 8049af9:	8b 45 14             	mov    0x14(%ebp),%eax
 8049afc:	0f af 45 10          	imul   0x10(%ebp),%eax
 8049b00:	8b 7d 0c             	mov    0xc(%ebp),%edi
 8049b03:	8b 5d 18             	mov    0x18(%ebp),%ebx
 8049b06:	89 c2                	mov    %eax,%edx
 8049b08:	89 45 e0             	mov    %eax,-0x20(%ebp)
 8049b0b:	31 c0                	xor    %eax,%eax
 8049b0d:	85 d2                	test   %edx,%edx
 8049b0f:	0f 84 a6 00 00 00    	je     8049bbb <_fread_r+0xcb>
 8049b15:	8b 4d 08             	mov    0x8(%ebp),%ecx
 8049b18:	85 c9                	test   %ecx,%ecx
 8049b1a:	74 0e                	je     8049b2a <_fread_r+0x3a>
 8049b1c:	8b 45 08             	mov    0x8(%ebp),%eax
 8049b1f:	8b 50 38             	mov    0x38(%eax),%edx
 8049b22:	85 d2                	test   %edx,%edx
 8049b24:	0f 84 8e 01 00 00    	je     8049cb8 <_fread_r+0x1c8>
 8049b2a:	0f b7 43 0c          	movzwl 0xc(%ebx),%eax
 8049b2e:	f6 c4 20             	test   $0x20,%ah
 8049b31:	75 0e                	jne    8049b41 <_fread_r+0x51>
 8049b33:	81 63 64 ff df ff ff 	andl   $0xffffdfff,0x64(%ebx)
 8049b3a:	80 cc 20             	or     $0x20,%ah
 8049b3d:	66 89 43 0c          	mov    %ax,0xc(%ebx)
 8049b41:	8b 53 04             	mov    0x4(%ebx),%edx
 8049b44:	85 d2                	test   %edx,%edx
 8049b46:	89 d1                	mov    %edx,%ecx
 8049b48:	0f 88 4a 01 00 00    	js     8049c98 <_fread_r+0x1a8>
 8049b4e:	a8 02                	test   $0x2,%al
 8049b50:	8b 75 e0             	mov    -0x20(%ebp),%esi
 8049b53:	0f 85 87 00 00 00    	jne    8049be0 <_fread_r+0xf0>
 8049b59:	89 75 e4             	mov    %esi,-0x1c(%ebp)
 8049b5c:	89 de                	mov    %ebx,%esi
 8049b5e:	89 d3                	mov    %edx,%ebx
 8049b60:	eb 35                	jmp    8049b97 <_fread_r+0xa7>
 8049b62:	8d b6 00 00 00 00    	lea    0x0(%esi),%esi
 8049b68:	89 5c 24 08          	mov    %ebx,0x8(%esp)
 8049b6c:	8b 06                	mov    (%esi),%eax
 8049b6e:	89 3c 24             	mov    %edi,(%esp)
 8049b71:	01 df                	add    %ebx,%edi
 8049b73:	89 44 24 04          	mov    %eax,0x4(%esp)
 8049b77:	e8 e4 12 00 00       	call   804ae60 <memcpy>
 8049b7c:	8b 45 08             	mov    0x8(%ebp),%eax
 8049b7f:	01 1e                	add    %ebx,(%esi)
 8049b81:	29 5d e4             	sub    %ebx,-0x1c(%ebp)
 8049b84:	89 74 24 04          	mov    %esi,0x4(%esp)
 8049b88:	89 04 24             	mov    %eax,(%esp)
 8049b8b:	e8 c0 15 00 00       	call   804b150 <__srefill_r>
 8049b90:	85 c0                	test   %eax,%eax
 8049b92:	75 34                	jne    8049bc8 <_fread_r+0xd8>
 8049b94:	8b 5e 04             	mov    0x4(%esi),%ebx
 8049b97:	39 5d e4             	cmp    %ebx,-0x1c(%ebp)
 8049b9a:	77 cc                	ja     8049b68 <_fread_r+0x78>
 8049b9c:	89 f3                	mov    %esi,%ebx
 8049b9e:	8b 75 e4             	mov    -0x1c(%ebp),%esi
 8049ba1:	89 74 24 08          	mov    %esi,0x8(%esp)
 8049ba5:	8b 03                	mov    (%ebx),%eax
 8049ba7:	89 3c 24             	mov    %edi,(%esp)
 8049baa:	89 44 24 04          	mov    %eax,0x4(%esp)
 8049bae:	e8 ad 12 00 00       	call   804ae60 <memcpy>
 8049bb3:	29 73 04             	sub    %esi,0x4(%ebx)
 8049bb6:	01 33                	add    %esi,(%ebx)
 8049bb8:	8b 45 14             	mov    0x14(%ebp),%eax
 8049bbb:	83 c4 2c             	add    $0x2c,%esp
 8049bbe:	5b                   	pop    %ebx
 8049bbf:	5e                   	pop    %esi
 8049bc0:	5f                   	pop    %edi
 8049bc1:	5d                   	pop    %ebp
 8049bc2:	c3                   	ret    
 8049bc3:	90                   	nop
 8049bc4:	8d 74 26 00          	lea    0x0(%esi,%eiz,1),%esi
 8049bc8:	8b 75 e4             	mov    -0x1c(%ebp),%esi
 8049bcb:	8b 45 e0             	mov    -0x20(%ebp),%eax
 8049bce:	31 d2                	xor    %edx,%edx
 8049bd0:	29 f0                	sub    %esi,%eax
 8049bd2:	f7 75 10             	divl   0x10(%ebp)
 8049bd5:	83 c4 2c             	add    $0x2c,%esp
 8049bd8:	5b                   	pop    %ebx
 8049bd9:	5e                   	pop    %esi
 8049bda:	5f                   	pop    %edi
 8049bdb:	5d                   	pop    %ebp
 8049bdc:	c3                   	ret    
 8049bdd:	8d 76 00             	lea    0x0(%esi),%esi
 8049be0:	39 f1                	cmp    %esi,%ecx
 8049be2:	0f 47 ce             	cmova  %esi,%ecx
 8049be5:	89 4c 24 08          	mov    %ecx,0x8(%esp)
 8049be9:	8b 03                	mov    (%ebx),%eax
 8049beb:	89 ce                	mov    %ecx,%esi
 8049bed:	89 3c 24             	mov    %edi,(%esp)
 8049bf0:	01 f7                	add    %esi,%edi
 8049bf2:	89 44 24 04          	mov    %eax,0x4(%esp)
 8049bf6:	e8 65 12 00 00       	call   804ae60 <memcpy>
 8049bfb:	8b 0b                	mov    (%ebx),%ecx
 8049bfd:	8b 45 e0             	mov    -0x20(%ebp),%eax
 8049c00:	8b 53 30             	mov    0x30(%ebx),%edx
 8049c03:	29 73 04             	sub    %esi,0x4(%ebx)
 8049c06:	01 f1                	add    %esi,%ecx
 8049c08:	29 f0                	sub    %esi,%eax
 8049c0a:	85 d2                	test   %edx,%edx
 8049c0c:	89 c6                	mov    %eax,%esi
 8049c0e:	89 4d e4             	mov    %ecx,-0x1c(%ebp)
 8049c11:	89 0b                	mov    %ecx,(%ebx)
 8049c13:	0f 84 b9 00 00 00    	je     8049cd2 <_fread_r+0x1e2>
 8049c19:	85 c0                	test   %eax,%eax
 8049c1b:	74 9b                	je     8049bb8 <_fread_r+0xc8>
 8049c1d:	8d 43 40             	lea    0x40(%ebx),%eax
 8049c20:	39 c2                	cmp    %eax,%edx
 8049c22:	74 14                	je     8049c38 <_fread_r+0x148>
 8049c24:	8b 45 08             	mov    0x8(%ebp),%eax
 8049c27:	89 54 24 04          	mov    %edx,0x4(%esp)
 8049c2b:	89 04 24             	mov    %eax,(%esp)
 8049c2e:	e8 ed 01 00 00       	call   8049e20 <_free_r>
 8049c33:	8b 03                	mov    (%ebx),%eax
 8049c35:	89 45 e4             	mov    %eax,-0x1c(%ebp)
 8049c38:	c7 43 30 00 00 00 00 	movl   $0x0,0x30(%ebx)
 8049c3f:	8b 43 10             	mov    0x10(%ebx),%eax
 8049c42:	89 45 dc             	mov    %eax,-0x24(%ebp)
 8049c45:	8b 43 14             	mov    0x14(%ebx),%eax
 8049c48:	89 45 d8             	mov    %eax,-0x28(%ebp)
 8049c4b:	eb 0b                	jmp    8049c58 <_fread_r+0x168>
 8049c4d:	8d 76 00             	lea    0x0(%esi),%esi
 8049c50:	85 f6                	test   %esi,%esi
 8049c52:	0f 84 60 ff ff ff    	je     8049bb8 <_fread_r+0xc8>
 8049c58:	8b 45 08             	mov    0x8(%ebp),%eax
 8049c5b:	89 7b 10             	mov    %edi,0x10(%ebx)
 8049c5e:	89 73 14             	mov    %esi,0x14(%ebx)
 8049c61:	89 3b                	mov    %edi,(%ebx)
 8049c63:	89 5c 24 04          	mov    %ebx,0x4(%esp)
 8049c67:	89 04 24             	mov    %eax,(%esp)
 8049c6a:	e8 e1 14 00 00       	call   804b150 <__srefill_r>
 8049c6f:	8b 4d d8             	mov    -0x28(%ebp),%ecx
 8049c72:	8b 55 dc             	mov    -0x24(%ebp),%edx
 8049c75:	89 4b 14             	mov    %ecx,0x14(%ebx)
 8049c78:	8b 4b 04             	mov    0x4(%ebx),%ecx
 8049c7b:	89 53 10             	mov    %edx,0x10(%ebx)
 8049c7e:	8b 55 e4             	mov    -0x1c(%ebp),%edx
 8049c81:	c7 43 04 00 00 00 00 	movl   $0x0,0x4(%ebx)
 8049c88:	29 ce                	sub    %ecx,%esi
 8049c8a:	01 cf                	add    %ecx,%edi
 8049c8c:	85 c0                	test   %eax,%eax
 8049c8e:	89 13                	mov    %edx,(%ebx)
 8049c90:	74 be                	je     8049c50 <_fread_r+0x160>
 8049c92:	e9 34 ff ff ff       	jmp    8049bcb <_fread_r+0xdb>
 8049c97:	90                   	nop
 8049c98:	31 c9                	xor    %ecx,%ecx
 8049c9a:	31 d2                	xor    %edx,%edx
 8049c9c:	8b 75 e0             	mov    -0x20(%ebp),%esi
 8049c9f:	a8 02                	test   $0x2,%al
 8049ca1:	c7 43 04 00 00 00 00 	movl   $0x0,0x4(%ebx)
 8049ca8:	0f 84 ab fe ff ff    	je     8049b59 <_fread_r+0x69>
 8049cae:	e9 2d ff ff ff       	jmp    8049be0 <_fread_r+0xf0>
 8049cb3:	90                   	nop
 8049cb4:	8d 74 26 00          	lea    0x0(%esi,%eiz,1),%esi
 8049cb8:	89 04 24             	mov    %eax,(%esp)
 8049cbb:	e8 70 51 00 00       	call   804ee30 <__sinit>
 8049cc0:	0f b7 43 0c          	movzwl 0xc(%ebx),%eax
 8049cc4:	f6 c4 20             	test   $0x20,%ah
 8049cc7:	0f 85 74 fe ff ff    	jne    8049b41 <_fread_r+0x51>
 8049ccd:	e9 61 fe ff ff       	jmp    8049b33 <_fread_r+0x43>
 8049cd2:	85 c0                	test   %eax,%eax
 8049cd4:	0f 85 65 ff ff ff    	jne    8049c3f <_fread_r+0x14f>
 8049cda:	8d b6 00 00 00 00    	lea    0x0(%esi),%esi
 8049ce0:	e9 d3 fe ff ff       	jmp    8049bb8 <_fread_r+0xc8>
 8049ce5:	8d 74 26 00          	lea    0x0(%esi,%eiz,1),%esi
 8049ce9:	8d bc 27 00 00 00 00 	lea    0x0(%edi,%eiz,1),%edi

08049cf0 <fread>:
 8049cf0:	55                   	push   %ebp
 8049cf1:	89 e5                	mov    %esp,%ebp
 8049cf3:	83 ec 28             	sub    $0x28,%esp
 8049cf6:	e8 d5 08 00 00       	call   804a5d0 <__getreent>
 8049cfb:	8b 55 14             	mov    0x14(%ebp),%edx
 8049cfe:	89 54 24 10          	mov    %edx,0x10(%esp)
 8049d02:	8b 55 10             	mov    0x10(%ebp),%edx
 8049d05:	89 04 24             	mov    %eax,(%esp)
 8049d08:	89 54 24 0c          	mov    %edx,0xc(%esp)
 8049d0c:	8b 55 0c             	mov    0xc(%ebp),%edx
 8049d0f:	89 54 24 08          	mov    %edx,0x8(%esp)
 8049d13:	8b 55 08             	mov    0x8(%ebp),%edx
 8049d16:	89 54 24 04          	mov    %edx,0x4(%esp)
 8049d1a:	e8 d1 fd ff ff       	call   8049af0 <_fread_r>
 8049d1f:	c9                   	leave  
 8049d20:	c3                   	ret    
 8049d21:	66 90                	xchg   %ax,%ax
 8049d23:	66 90                	xchg   %ax,%ax
 8049d25:	66 90                	xchg   %ax,%ax
 8049d27:	66 90                	xchg   %ax,%ax
 8049d29:	66 90                	xchg   %ax,%ax
 8049d2b:	66 90                	xchg   %ax,%ax
 8049d2d:	66 90                	xchg   %ax,%ax
 8049d2f:	90                   	nop

08049d30 <_malloc_trim_r>:
 8049d30:	55                   	push   %ebp
 8049d31:	89 e5                	mov    %esp,%ebp
 8049d33:	57                   	push   %edi
 8049d34:	56                   	push   %esi
 8049d35:	53                   	push   %ebx
 8049d36:	83 ec 1c             	sub    $0x1c,%esp
 8049d39:	8b 75 08             	mov    0x8(%ebp),%esi
 8049d3c:	89 34 24             	mov    %esi,(%esp)
 8049d3f:	e8 ec 11 00 00       	call   804af30 <__malloc_lock>
 8049d44:	a1 28 7b 05 08       	mov    0x8057b28,%eax
 8049d49:	8b 58 04             	mov    0x4(%eax),%ebx
 8049d4c:	83 e3 fc             	and    $0xfffffffc,%ebx
 8049d4f:	89 d8                	mov    %ebx,%eax
 8049d51:	2b 45 0c             	sub    0xc(%ebp),%eax
 8049d54:	05 ef 0f 00 00       	add    $0xfef,%eax
 8049d59:	25 00 f0 ff ff       	and    $0xfffff000,%eax
 8049d5e:	8d b8 00 f0 ff ff    	lea    -0x1000(%eax),%edi
 8049d64:	81 ff ff 0f 00 00    	cmp    $0xfff,%edi
 8049d6a:	7e 1c                	jle    8049d88 <_malloc_trim_r+0x58>
 8049d6c:	c7 44 24 04 00 00 00 	movl   $0x0,0x4(%esp)
 8049d73:	00 
 8049d74:	89 34 24             	mov    %esi,(%esp)
 8049d77:	e8 b4 15 00 00       	call   804b330 <_sbrk_r>
 8049d7c:	8b 15 28 7b 05 08    	mov    0x8057b28,%edx
 8049d82:	01 da                	add    %ebx,%edx
 8049d84:	39 d0                	cmp    %edx,%eax
 8049d86:	74 18                	je     8049da0 <_malloc_trim_r+0x70>
 8049d88:	89 34 24             	mov    %esi,(%esp)
 8049d8b:	e8 b0 11 00 00       	call   804af40 <__malloc_unlock>
 8049d90:	83 c4 1c             	add    $0x1c,%esp
 8049d93:	31 c0                	xor    %eax,%eax
 8049d95:	5b                   	pop    %ebx
 8049d96:	5e                   	pop    %esi
 8049d97:	5f                   	pop    %edi
 8049d98:	5d                   	pop    %ebp
 8049d99:	c3                   	ret    
 8049d9a:	8d b6 00 00 00 00    	lea    0x0(%esi),%esi
 8049da0:	89 f8                	mov    %edi,%eax
 8049da2:	f7 d8                	neg    %eax
 8049da4:	89 44 24 04          	mov    %eax,0x4(%esp)
 8049da8:	89 34 24             	mov    %esi,(%esp)
 8049dab:	e8 80 15 00 00       	call   804b330 <_sbrk_r>
 8049db0:	83 f8 ff             	cmp    $0xffffffff,%eax
 8049db3:	74 2b                	je     8049de0 <_malloc_trim_r+0xb0>
 8049db5:	a1 28 7b 05 08       	mov    0x8057b28,%eax
 8049dba:	29 fb                	sub    %edi,%ebx
 8049dbc:	83 cb 01             	or     $0x1,%ebx
 8049dbf:	29 3d 20 6e 08 08    	sub    %edi,0x8086e20
 8049dc5:	89 58 04             	mov    %ebx,0x4(%eax)
 8049dc8:	89 34 24             	mov    %esi,(%esp)
 8049dcb:	e8 70 11 00 00       	call   804af40 <__malloc_unlock>
 8049dd0:	83 c4 1c             	add    $0x1c,%esp
 8049dd3:	b8 01 00 00 00       	mov    $0x1,%eax
 8049dd8:	5b                   	pop    %ebx
 8049dd9:	5e                   	pop    %esi
 8049dda:	5f                   	pop    %edi
 8049ddb:	5d                   	pop    %ebp
 8049ddc:	c3                   	ret    
 8049ddd:	8d 76 00             	lea    0x0(%esi),%esi
 8049de0:	c7 44 24 04 00 00 00 	movl   $0x0,0x4(%esp)
 8049de7:	00 
 8049de8:	89 34 24             	mov    %esi,(%esp)
 8049deb:	e8 40 15 00 00       	call   804b330 <_sbrk_r>
 8049df0:	8b 15 28 7b 05 08    	mov    0x8057b28,%edx
 8049df6:	89 c1                	mov    %eax,%ecx
 8049df8:	29 d1                	sub    %edx,%ecx
 8049dfa:	83 f9 0f             	cmp    $0xf,%ecx
 8049dfd:	7e 89                	jle    8049d88 <_malloc_trim_r+0x58>
 8049dff:	2b 05 00 7b 05 08    	sub    0x8057b00,%eax
 8049e05:	83 c9 01             	or     $0x1,%ecx
 8049e08:	89 4a 04             	mov    %ecx,0x4(%edx)
 8049e0b:	a3 20 6e 08 08       	mov    %eax,0x8086e20
 8049e10:	e9 73 ff ff ff       	jmp    8049d88 <_malloc_trim_r+0x58>
 8049e15:	8d 74 26 00          	lea    0x0(%esi,%eiz,1),%esi
 8049e19:	8d bc 27 00 00 00 00 	lea    0x0(%edi,%eiz,1),%edi

08049e20 <_free_r>:
 8049e20:	55                   	push   %ebp
 8049e21:	89 e5                	mov    %esp,%ebp
 8049e23:	57                   	push   %edi
 8049e24:	56                   	push   %esi
 8049e25:	53                   	push   %ebx
 8049e26:	83 ec 1c             	sub    $0x1c,%esp
 8049e29:	8b 75 0c             	mov    0xc(%ebp),%esi
 8049e2c:	8b 45 08             	mov    0x8(%ebp),%eax
 8049e2f:	85 f6                	test   %esi,%esi
 8049e31:	89 45 e4             	mov    %eax,-0x1c(%ebp)
 8049e34:	0f 84 fe 00 00 00    	je     8049f38 <_free_r+0x118>
 8049e3a:	89 04 24             	mov    %eax,(%esp)
 8049e3d:	e8 ee 10 00 00       	call   804af30 <__malloc_lock>
 8049e42:	8b 7e fc             	mov    -0x4(%esi),%edi
 8049e45:	8d 56 f8             	lea    -0x8(%esi),%edx
 8049e48:	89 f8                	mov    %edi,%eax
 8049e4a:	83 e0 fe             	and    $0xfffffffe,%eax
 8049e4d:	8d 0c 02             	lea    (%edx,%eax,1),%ecx
 8049e50:	8b 59 04             	mov    0x4(%ecx),%ebx
 8049e53:	83 e3 fc             	and    $0xfffffffc,%ebx
 8049e56:	39 0d 28 7b 05 08    	cmp    %ecx,0x8057b28
 8049e5c:	0f 84 0e 01 00 00    	je     8049f70 <_free_r+0x150>
 8049e62:	83 e7 01             	and    $0x1,%edi
 8049e65:	89 59 04             	mov    %ebx,0x4(%ecx)
 8049e68:	c7 45 e0 00 00 00 00 	movl   $0x0,-0x20(%ebp)
 8049e6f:	75 1f                	jne    8049e90 <_free_r+0x70>
 8049e71:	8b 76 f8             	mov    -0x8(%esi),%esi
 8049e74:	29 f2                	sub    %esi,%edx
 8049e76:	01 f0                	add    %esi,%eax
 8049e78:	8b 72 08             	mov    0x8(%edx),%esi
 8049e7b:	81 fe 28 7b 05 08    	cmp    $0x8057b28,%esi
 8049e81:	0f 84 39 01 00 00    	je     8049fc0 <_free_r+0x1a0>
 8049e87:	8b 7a 0c             	mov    0xc(%edx),%edi
 8049e8a:	89 7e 0c             	mov    %edi,0xc(%esi)
 8049e8d:	89 77 08             	mov    %esi,0x8(%edi)
 8049e90:	f6 44 19 04 01       	testb  $0x1,0x4(%ecx,%ebx,1)
 8049e95:	75 21                	jne    8049eb8 <_free_r+0x98>
 8049e97:	8b 75 e0             	mov    -0x20(%ebp),%esi
 8049e9a:	01 d8                	add    %ebx,%eax
 8049e9c:	8b 59 08             	mov    0x8(%ecx),%ebx
 8049e9f:	85 f6                	test   %esi,%esi
 8049ea1:	75 0c                	jne    8049eaf <_free_r+0x8f>
 8049ea3:	81 fb 28 7b 05 08    	cmp    $0x8057b28,%ebx
 8049ea9:	0f 84 21 01 00 00    	je     8049fd0 <_free_r+0x1b0>
 8049eaf:	8b 49 0c             	mov    0xc(%ecx),%ecx
 8049eb2:	89 4b 0c             	mov    %ecx,0xc(%ebx)
 8049eb5:	89 59 08             	mov    %ebx,0x8(%ecx)
 8049eb8:	89 c1                	mov    %eax,%ecx
 8049eba:	83 c9 01             	or     $0x1,%ecx
 8049ebd:	89 4a 04             	mov    %ecx,0x4(%edx)
 8049ec0:	8b 4d e0             	mov    -0x20(%ebp),%ecx
 8049ec3:	89 04 02             	mov    %eax,(%edx,%eax,1)
 8049ec6:	85 c9                	test   %ecx,%ecx
 8049ec8:	75 56                	jne    8049f20 <_free_r+0x100>
 8049eca:	3d ff 01 00 00       	cmp    $0x1ff,%eax
 8049ecf:	76 6f                	jbe    8049f40 <_free_r+0x120>
 8049ed1:	89 c1                	mov    %eax,%ecx
 8049ed3:	c1 e9 09             	shr    $0x9,%ecx
 8049ed6:	83 f9 04             	cmp    $0x4,%ecx
 8049ed9:	0f 87 21 01 00 00    	ja     804a000 <_free_r+0x1e0>
 8049edf:	89 c1                	mov    %eax,%ecx
 8049ee1:	c1 e9 06             	shr    $0x6,%ecx
 8049ee4:	83 c1 38             	add    $0x38,%ecx
 8049ee7:	8d 1c 09             	lea    (%ecx,%ecx,1),%ebx
 8049eea:	8d 34 9d 20 7b 05 08 	lea    0x8057b20(,%ebx,4),%esi
 8049ef1:	8b 5e 08             	mov    0x8(%esi),%ebx
 8049ef4:	39 f3                	cmp    %esi,%ebx
 8049ef6:	0f 84 14 01 00 00    	je     804a010 <_free_r+0x1f0>
 8049efc:	8d 74 26 00          	lea    0x0(%esi,%eiz,1),%esi
 8049f00:	8b 4b 04             	mov    0x4(%ebx),%ecx
 8049f03:	83 e1 fc             	and    $0xfffffffc,%ecx
 8049f06:	39 c8                	cmp    %ecx,%eax
 8049f08:	73 07                	jae    8049f11 <_free_r+0xf1>
 8049f0a:	8b 5b 08             	mov    0x8(%ebx),%ebx
 8049f0d:	39 de                	cmp    %ebx,%esi
 8049f0f:	75 ef                	jne    8049f00 <_free_r+0xe0>
 8049f11:	8b 43 0c             	mov    0xc(%ebx),%eax
 8049f14:	89 42 0c             	mov    %eax,0xc(%edx)
 8049f17:	89 5a 08             	mov    %ebx,0x8(%edx)
 8049f1a:	89 50 08             	mov    %edx,0x8(%eax)
 8049f1d:	89 53 0c             	mov    %edx,0xc(%ebx)
 8049f20:	8b 45 e4             	mov    -0x1c(%ebp),%eax
 8049f23:	89 45 08             	mov    %eax,0x8(%ebp)
 8049f26:	83 c4 1c             	add    $0x1c,%esp
 8049f29:	5b                   	pop    %ebx
 8049f2a:	5e                   	pop    %esi
 8049f2b:	5f                   	pop    %edi
 8049f2c:	5d                   	pop    %ebp
 8049f2d:	e9 0e 10 00 00       	jmp    804af40 <__malloc_unlock>
 8049f32:	8d b6 00 00 00 00    	lea    0x0(%esi),%esi
 8049f38:	83 c4 1c             	add    $0x1c,%esp
 8049f3b:	5b                   	pop    %ebx
 8049f3c:	5e                   	pop    %esi
 8049f3d:	5f                   	pop    %edi
 8049f3e:	5d                   	pop    %ebp
 8049f3f:	c3                   	ret    
 8049f40:	c1 e8 03             	shr    $0x3,%eax
 8049f43:	bb 01 00 00 00       	mov    $0x1,%ebx
 8049f48:	89 c1                	mov    %eax,%ecx
 8049f4a:	c1 f9 02             	sar    $0x2,%ecx
 8049f4d:	8d 04 c5 20 7b 05 08 	lea    0x8057b20(,%eax,8),%eax
 8049f54:	d3 e3                	shl    %cl,%ebx
 8049f56:	8b 48 08             	mov    0x8(%eax),%ecx
 8049f59:	09 1d 24 7b 05 08    	or     %ebx,0x8057b24
 8049f5f:	89 42 0c             	mov    %eax,0xc(%edx)
 8049f62:	89 4a 08             	mov    %ecx,0x8(%edx)
 8049f65:	89 50 08             	mov    %edx,0x8(%eax)
 8049f68:	89 51 0c             	mov    %edx,0xc(%ecx)
 8049f6b:	eb b3                	jmp    8049f20 <_free_r+0x100>
 8049f6d:	8d 76 00             	lea    0x0(%esi),%esi
 8049f70:	01 d8                	add    %ebx,%eax
 8049f72:	83 e7 01             	and    $0x1,%edi
 8049f75:	75 13                	jne    8049f8a <_free_r+0x16a>
 8049f77:	8b 4e f8             	mov    -0x8(%esi),%ecx
 8049f7a:	29 ca                	sub    %ecx,%edx
 8049f7c:	01 c8                	add    %ecx,%eax
 8049f7e:	8b 5a 08             	mov    0x8(%edx),%ebx
 8049f81:	8b 4a 0c             	mov    0xc(%edx),%ecx
 8049f84:	89 4b 0c             	mov    %ecx,0xc(%ebx)
 8049f87:	89 59 08             	mov    %ebx,0x8(%ecx)
 8049f8a:	89 c1                	mov    %eax,%ecx
 8049f8c:	83 c9 01             	or     $0x1,%ecx
 8049f8f:	3b 05 04 7b 05 08    	cmp    0x8057b04,%eax
 8049f95:	89 4a 04             	mov    %ecx,0x4(%edx)
 8049f98:	89 15 28 7b 05 08    	mov    %edx,0x8057b28
 8049f9e:	72 80                	jb     8049f20 <_free_r+0x100>
 8049fa0:	a1 50 6e 08 08       	mov    0x8086e50,%eax
 8049fa5:	89 44 24 04          	mov    %eax,0x4(%esp)
 8049fa9:	8b 45 e4             	mov    -0x1c(%ebp),%eax
 8049fac:	89 04 24             	mov    %eax,(%esp)
 8049faf:	e8 7c fd ff ff       	call   8049d30 <_malloc_trim_r>
 8049fb4:	e9 67 ff ff ff       	jmp    8049f20 <_free_r+0x100>
 8049fb9:	8d b4 26 00 00 00 00 	lea    0x0(%esi,%eiz,1),%esi
 8049fc0:	c7 45 e0 01 00 00 00 	movl   $0x1,-0x20(%ebp)
 8049fc7:	e9 c4 fe ff ff       	jmp    8049e90 <_free_r+0x70>
 8049fcc:	8d 74 26 00          	lea    0x0(%esi,%eiz,1),%esi
 8049fd0:	89 c1                	mov    %eax,%ecx
 8049fd2:	83 c9 01             	or     $0x1,%ecx
 8049fd5:	89 15 34 7b 05 08    	mov    %edx,0x8057b34
 8049fdb:	89 15 30 7b 05 08    	mov    %edx,0x8057b30
 8049fe1:	c7 42 0c 28 7b 05 08 	movl   $0x8057b28,0xc(%edx)
 8049fe8:	c7 42 08 28 7b 05 08 	movl   $0x8057b28,0x8(%edx)
 8049fef:	89 4a 04             	mov    %ecx,0x4(%edx)
 8049ff2:	89 04 02             	mov    %eax,(%edx,%eax,1)
 8049ff5:	e9 26 ff ff ff       	jmp    8049f20 <_free_r+0x100>
 8049ffa:	8d b6 00 00 00 00    	lea    0x0(%esi),%esi
 804a000:	83 f9 14             	cmp    $0x14,%ecx
 804a003:	77 23                	ja     804a028 <_free_r+0x208>
 804a005:	83 c1 5b             	add    $0x5b,%ecx
 804a008:	8d 1c 09             	lea    (%ecx,%ecx,1),%ebx
 804a00b:	e9 da fe ff ff       	jmp    8049eea <_free_r+0xca>
 804a010:	c1 f9 02             	sar    $0x2,%ecx
 804a013:	b8 01 00 00 00       	mov    $0x1,%eax
 804a018:	d3 e0                	shl    %cl,%eax
 804a01a:	09 05 24 7b 05 08    	or     %eax,0x8057b24
 804a020:	89 d8                	mov    %ebx,%eax
 804a022:	e9 ed fe ff ff       	jmp    8049f14 <_free_r+0xf4>
 804a027:	90                   	nop
 804a028:	83 f9 54             	cmp    $0x54,%ecx
 804a02b:	77 10                	ja     804a03d <_free_r+0x21d>
 804a02d:	89 c1                	mov    %eax,%ecx
 804a02f:	c1 e9 0c             	shr    $0xc,%ecx
 804a032:	83 c1 6e             	add    $0x6e,%ecx
 804a035:	8d 1c 09             	lea    (%ecx,%ecx,1),%ebx
 804a038:	e9 ad fe ff ff       	jmp    8049eea <_free_r+0xca>
 804a03d:	81 f9 54 01 00 00    	cmp    $0x154,%ecx
 804a043:	77 10                	ja     804a055 <_free_r+0x235>
 804a045:	89 c1                	mov    %eax,%ecx
 804a047:	c1 e9 0f             	shr    $0xf,%ecx
 804a04a:	83 c1 77             	add    $0x77,%ecx
 804a04d:	8d 1c 09             	lea    (%ecx,%ecx,1),%ebx
 804a050:	e9 95 fe ff ff       	jmp    8049eea <_free_r+0xca>
 804a055:	81 f9 54 05 00 00    	cmp    $0x554,%ecx
 804a05b:	77 10                	ja     804a06d <_free_r+0x24d>
 804a05d:	89 c1                	mov    %eax,%ecx
 804a05f:	c1 e9 12             	shr    $0x12,%ecx
 804a062:	83 c1 7c             	add    $0x7c,%ecx
 804a065:	8d 1c 09             	lea    (%ecx,%ecx,1),%ebx
 804a068:	e9 7d fe ff ff       	jmp    8049eea <_free_r+0xca>
 804a06d:	bb fc 00 00 00       	mov    $0xfc,%ebx
 804a072:	b9 7e 00 00 00       	mov    $0x7e,%ecx
 804a077:	e9 6e fe ff ff       	jmp    8049eea <_free_r+0xca>
 804a07c:	66 90                	xchg   %ax,%ax
 804a07e:	66 90                	xchg   %ax,%ax

0804a080 <_fseek_r>:
 804a080:	55                   	push   %ebp
 804a081:	89 e5                	mov    %esp,%ebp
 804a083:	5d                   	pop    %ebp
 804a084:	e9 37 00 00 00       	jmp    804a0c0 <_fseeko_r>
 804a089:	8d b4 26 00 00 00 00 	lea    0x0(%esi,%eiz,1),%esi

0804a090 <fseek>:
 804a090:	55                   	push   %ebp
 804a091:	89 e5                	mov    %esp,%ebp
 804a093:	83 ec 18             	sub    $0x18,%esp
 804a096:	e8 35 05 00 00       	call   804a5d0 <__getreent>
 804a09b:	8b 55 10             	mov    0x10(%ebp),%edx
 804a09e:	89 54 24 0c          	mov    %edx,0xc(%esp)
 804a0a2:	8b 55 0c             	mov    0xc(%ebp),%edx
 804a0a5:	89 04 24             	mov    %eax,(%esp)
 804a0a8:	89 54 24 08          	mov    %edx,0x8(%esp)
 804a0ac:	8b 55 08             	mov    0x8(%ebp),%edx
 804a0af:	89 54 24 04          	mov    %edx,0x4(%esp)
 804a0b3:	e8 08 00 00 00       	call   804a0c0 <_fseeko_r>
 804a0b8:	c9                   	leave  
 804a0b9:	c3                   	ret    
 804a0ba:	66 90                	xchg   %ax,%ax
 804a0bc:	66 90                	xchg   %ax,%ax
 804a0be:	66 90                	xchg   %ax,%ax

0804a0c0 <_fseeko_r>:
 804a0c0:	55                   	push   %ebp
 804a0c1:	89 e5                	mov    %esp,%ebp
 804a0c3:	57                   	push   %edi
 804a0c4:	56                   	push   %esi
 804a0c5:	53                   	push   %ebx
 804a0c6:	83 ec 6c             	sub    $0x6c,%esp
 804a0c9:	8b 75 08             	mov    0x8(%ebp),%esi
 804a0cc:	8b 5d 0c             	mov    0xc(%ebp),%ebx
 804a0cf:	85 f6                	test   %esi,%esi
 804a0d1:	74 0b                	je     804a0de <_fseeko_r+0x1e>
 804a0d3:	8b 7e 38             	mov    0x38(%esi),%edi
 804a0d6:	85 ff                	test   %edi,%edi
 804a0d8:	0f 84 6a 01 00 00    	je     804a248 <_fseeko_r+0x188>
 804a0de:	0f b7 43 0c          	movzwl 0xc(%ebx),%eax
 804a0e2:	66 25 08 01          	and    $0x108,%ax
 804a0e6:	66 3d 08 01          	cmp    $0x108,%ax
 804a0ea:	0f 84 72 01 00 00    	je     804a262 <_fseeko_r+0x1a2>
 804a0f0:	8b 43 28             	mov    0x28(%ebx),%eax
 804a0f3:	85 c0                	test   %eax,%eax
 804a0f5:	89 45 a4             	mov    %eax,-0x5c(%ebp)
 804a0f8:	0f 84 39 04 00 00    	je     804a537 <_fseeko_r+0x477>
 804a0fe:	83 7d 14 01          	cmpl   $0x1,0x14(%ebp)
 804a102:	0f 84 f0 00 00 00    	je     804a1f8 <_fseeko_r+0x138>
 804a108:	83 7d 14 02          	cmpl   $0x2,0x14(%ebp)
 804a10c:	74 22                	je     804a130 <_fseeko_r+0x70>
 804a10e:	8b 4d 14             	mov    0x14(%ebp),%ecx
 804a111:	85 c9                	test   %ecx,%ecx
 804a113:	74 1b                	je     804a130 <_fseeko_r+0x70>
 804a115:	c7 06 16 00 00 00    	movl   $0x16,(%esi)
 804a11b:	bf ff ff ff ff       	mov    $0xffffffff,%edi
 804a120:	83 c4 6c             	add    $0x6c,%esp
 804a123:	89 f8                	mov    %edi,%eax
 804a125:	5b                   	pop    %ebx
 804a126:	5e                   	pop    %esi
 804a127:	5f                   	pop    %edi
 804a128:	5d                   	pop    %ebp
 804a129:	c3                   	ret    
 804a12a:	8d b6 00 00 00 00    	lea    0x0(%esi),%esi
 804a130:	8b 43 10             	mov    0x10(%ebx),%eax
 804a133:	31 c9                	xor    %ecx,%ecx
 804a135:	31 ff                	xor    %edi,%edi
 804a137:	85 c0                	test   %eax,%eax
 804a139:	0f 84 99 03 00 00    	je     804a4d8 <_fseeko_r+0x418>
 804a13f:	0f b7 43 0c          	movzwl 0xc(%ebx),%eax
 804a143:	66 a9 1a 08          	test   $0x81a,%ax
 804a147:	75 1d                	jne    804a166 <_fseeko_r+0xa6>
 804a149:	f6 c4 04             	test   $0x4,%ah
 804a14c:	0f 85 2e 01 00 00    	jne    804a280 <_fseeko_r+0x1c0>
 804a152:	81 7d a4 40 b4 04 08 	cmpl   $0x804b440,-0x5c(%ebp)
 804a159:	0f 84 29 03 00 00    	je     804a488 <_fseeko_r+0x3c8>
 804a15f:	80 cc 08             	or     $0x8,%ah
 804a162:	66 89 43 0c          	mov    %ax,0xc(%ebx)
 804a166:	89 5c 24 04          	mov    %ebx,0x4(%esp)
 804a16a:	89 34 24             	mov    %esi,(%esp)
 804a16d:	e8 4e 4b 00 00       	call   804ecc0 <_fflush_r>
 804a172:	85 c0                	test   %eax,%eax
 804a174:	89 c7                	mov    %eax,%edi
 804a176:	75 a3                	jne    804a11b <_fseeko_r+0x5b>
 804a178:	8b 45 14             	mov    0x14(%ebp),%eax
 804a17b:	89 44 24 0c          	mov    %eax,0xc(%esp)
 804a17f:	8b 45 10             	mov    0x10(%ebp),%eax
 804a182:	89 44 24 08          	mov    %eax,0x8(%esp)
 804a186:	8b 43 1c             	mov    0x1c(%ebx),%eax
 804a189:	89 34 24             	mov    %esi,(%esp)
 804a18c:	89 44 24 04          	mov    %eax,0x4(%esp)
 804a190:	8b 45 a4             	mov    -0x5c(%ebp),%eax
 804a193:	ff d0                	call   *%eax
 804a195:	83 f8 ff             	cmp    $0xffffffff,%eax
 804a198:	74 81                	je     804a11b <_fseeko_r+0x5b>
 804a19a:	8b 43 30             	mov    0x30(%ebx),%eax
 804a19d:	85 c0                	test   %eax,%eax
 804a19f:	74 1a                	je     804a1bb <_fseeko_r+0xfb>
 804a1a1:	8d 53 40             	lea    0x40(%ebx),%edx
 804a1a4:	39 d0                	cmp    %edx,%eax
 804a1a6:	74 0c                	je     804a1b4 <_fseeko_r+0xf4>
 804a1a8:	89 44 24 04          	mov    %eax,0x4(%esp)
 804a1ac:	89 34 24             	mov    %esi,(%esp)
 804a1af:	e8 6c fc ff ff       	call   8049e20 <_free_r>
 804a1b4:	c7 43 30 00 00 00 00 	movl   $0x0,0x30(%ebx)
 804a1bb:	8b 43 10             	mov    0x10(%ebx),%eax
 804a1be:	66 81 63 0c df f7    	andw   $0xf7df,0xc(%ebx)
 804a1c4:	83 c3 5c             	add    $0x5c,%ebx
 804a1c7:	c7 43 a8 00 00 00 00 	movl   $0x0,-0x58(%ebx)
 804a1ce:	89 43 a4             	mov    %eax,-0x5c(%ebx)
 804a1d1:	89 1c 24             	mov    %ebx,(%esp)
 804a1d4:	c7 44 24 08 08 00 00 	movl   $0x8,0x8(%esp)
 804a1db:	00 
 804a1dc:	c7 44 24 04 00 00 00 	movl   $0x0,0x4(%esp)
 804a1e3:	00 
 804a1e4:	e8 bf 0c 00 00       	call   804aea8 <memset>
 804a1e9:	83 c4 6c             	add    $0x6c,%esp
 804a1ec:	89 f8                	mov    %edi,%eax
 804a1ee:	5b                   	pop    %ebx
 804a1ef:	5e                   	pop    %esi
 804a1f0:	5f                   	pop    %edi
 804a1f1:	5d                   	pop    %ebp
 804a1f2:	c3                   	ret    
 804a1f3:	90                   	nop
 804a1f4:	8d 74 26 00          	lea    0x0(%esi,%eiz,1),%esi
 804a1f8:	89 5c 24 04          	mov    %ebx,0x4(%esp)
 804a1fc:	89 34 24             	mov    %esi,(%esp)
 804a1ff:	e8 bc 4a 00 00       	call   804ecc0 <_fflush_r>
 804a204:	0f b7 43 0c          	movzwl 0xc(%ebx),%eax
 804a208:	f6 c4 10             	test   $0x10,%ah
 804a20b:	0f 84 3f 02 00 00    	je     804a450 <_fseeko_r+0x390>
 804a211:	8b 7b 50             	mov    0x50(%ebx),%edi
 804a214:	a8 04                	test   $0x4,%al
 804a216:	0f 85 1c 01 00 00    	jne    804a338 <_fseeko_r+0x278>
 804a21c:	a8 08                	test   $0x8,%al
 804a21e:	0f 84 21 01 00 00    	je     804a345 <_fseeko_r+0x285>
 804a224:	8b 0b                	mov    (%ebx),%ecx
 804a226:	8b 43 10             	mov    0x10(%ebx),%eax
 804a229:	85 c9                	test   %ecx,%ecx
 804a22b:	74 04                	je     804a231 <_fseeko_r+0x171>
 804a22d:	29 c1                	sub    %eax,%ecx
 804a22f:	01 cf                	add    %ecx,%edi
 804a231:	01 7d 10             	add    %edi,0x10(%ebp)
 804a234:	b9 01 00 00 00       	mov    $0x1,%ecx
 804a239:	c7 45 14 00 00 00 00 	movl   $0x0,0x14(%ebp)
 804a240:	e9 f2 fe ff ff       	jmp    804a137 <_fseeko_r+0x77>
 804a245:	8d 76 00             	lea    0x0(%esi),%esi
 804a248:	89 34 24             	mov    %esi,(%esp)
 804a24b:	e8 e0 4b 00 00       	call   804ee30 <__sinit>
 804a250:	0f b7 43 0c          	movzwl 0xc(%ebx),%eax
 804a254:	66 25 08 01          	and    $0x108,%ax
 804a258:	66 3d 08 01          	cmp    $0x108,%ax
 804a25c:	0f 85 8e fe ff ff    	jne    804a0f0 <_fseeko_r+0x30>
 804a262:	89 5c 24 04          	mov    %ebx,0x4(%esp)
 804a266:	89 34 24             	mov    %esi,(%esp)
 804a269:	e8 52 4a 00 00       	call   804ecc0 <_fflush_r>
 804a26e:	e9 7d fe ff ff       	jmp    804a0f0 <_fseeko_r+0x30>
 804a273:	66 81 4b 0c 00 04    	orw    $0x400,0xc(%ebx)
 804a279:	c7 43 4c 00 04 00 00 	movl   $0x400,0x4c(%ebx)
 804a280:	8b 45 10             	mov    0x10(%ebp),%eax
 804a283:	89 45 a0             	mov    %eax,-0x60(%ebp)
 804a286:	8b 45 14             	mov    0x14(%ebp),%eax
 804a289:	85 c0                	test   %eax,%eax
 804a28b:	0f 85 ef 00 00 00    	jne    804a380 <_fseeko_r+0x2c0>
 804a291:	85 c9                	test   %ecx,%ecx
 804a293:	0f 84 b7 00 00 00    	je     804a350 <_fseeko_r+0x290>
 804a299:	8b 53 30             	mov    0x30(%ebx),%edx
 804a29c:	8b 4b 04             	mov    0x4(%ebx),%ecx
 804a29f:	85 d2                	test   %edx,%edx
 804a2a1:	0f 84 79 02 00 00    	je     804a520 <_fseeko_r+0x460>
 804a2a7:	8b 43 3c             	mov    0x3c(%ebx),%eax
 804a2aa:	89 45 98             	mov    %eax,-0x68(%ebp)
 804a2ad:	8b 43 10             	mov    0x10(%ebx),%eax
 804a2b0:	01 cf                	add    %ecx,%edi
 804a2b2:	89 45 9c             	mov    %eax,-0x64(%ebp)
 804a2b5:	8b 43 38             	mov    0x38(%ebx),%eax
 804a2b8:	2b 45 9c             	sub    -0x64(%ebp),%eax
 804a2bb:	29 c7                	sub    %eax,%edi
 804a2bd:	03 45 98             	add    -0x68(%ebp),%eax
 804a2c0:	39 7d a0             	cmp    %edi,-0x60(%ebp)
 804a2c3:	0f 8c ef 00 00 00    	jl     804a3b8 <_fseeko_r+0x2f8>
 804a2c9:	8d 0c 07             	lea    (%edi,%eax,1),%ecx
 804a2cc:	39 4d a0             	cmp    %ecx,-0x60(%ebp)
 804a2cf:	0f 83 e3 00 00 00    	jae    804a3b8 <_fseeko_r+0x2f8>
 804a2d5:	8b 4d a0             	mov    -0x60(%ebp),%ecx
 804a2d8:	29 f9                	sub    %edi,%ecx
 804a2da:	89 cf                	mov    %ecx,%edi
 804a2dc:	8b 4d 9c             	mov    -0x64(%ebp),%ecx
 804a2df:	29 f8                	sub    %edi,%eax
 804a2e1:	89 43 04             	mov    %eax,0x4(%ebx)
 804a2e4:	01 f9                	add    %edi,%ecx
 804a2e6:	85 d2                	test   %edx,%edx
 804a2e8:	89 0b                	mov    %ecx,(%ebx)
 804a2ea:	74 1a                	je     804a306 <_fseeko_r+0x246>
 804a2ec:	8d 43 40             	lea    0x40(%ebx),%eax
 804a2ef:	39 c2                	cmp    %eax,%edx
 804a2f1:	74 0c                	je     804a2ff <_fseeko_r+0x23f>
 804a2f3:	89 54 24 04          	mov    %edx,0x4(%esp)
 804a2f7:	89 34 24             	mov    %esi,(%esp)
 804a2fa:	e8 21 fb ff ff       	call   8049e20 <_free_r>
 804a2ff:	c7 43 30 00 00 00 00 	movl   $0x0,0x30(%ebx)
 804a306:	66 83 63 0c df       	andw   $0xffdf,0xc(%ebx)
 804a30b:	83 c3 5c             	add    $0x5c,%ebx
 804a30e:	31 ff                	xor    %edi,%edi
 804a310:	89 1c 24             	mov    %ebx,(%esp)
 804a313:	c7 44 24 08 08 00 00 	movl   $0x8,0x8(%esp)
 804a31a:	00 
 804a31b:	c7 44 24 04 00 00 00 	movl   $0x0,0x4(%esp)
 804a322:	00 
 804a323:	e8 80 0b 00 00       	call   804aea8 <memset>
 804a328:	83 c4 6c             	add    $0x6c,%esp
 804a32b:	89 f8                	mov    %edi,%eax
 804a32d:	5b                   	pop    %ebx
 804a32e:	5e                   	pop    %esi
 804a32f:	5f                   	pop    %edi
 804a330:	5d                   	pop    %ebp
 804a331:	c3                   	ret    
 804a332:	8d b6 00 00 00 00    	lea    0x0(%esi),%esi
 804a338:	8b 53 30             	mov    0x30(%ebx),%edx
 804a33b:	2b 7b 04             	sub    0x4(%ebx),%edi
 804a33e:	85 d2                	test   %edx,%edx
 804a340:	74 03                	je     804a345 <_fseeko_r+0x285>
 804a342:	2b 7b 3c             	sub    0x3c(%ebx),%edi
 804a345:	8b 43 10             	mov    0x10(%ebx),%eax
 804a348:	e9 e4 fe ff ff       	jmp    804a231 <_fseeko_r+0x171>
 804a34d:	8d 76 00             	lea    0x0(%esi),%esi
 804a350:	f6 43 0d 10          	testb  $0x10,0xd(%ebx)
 804a354:	0f 84 96 01 00 00    	je     804a4f0 <_fseeko_r+0x430>
 804a35a:	8b 43 50             	mov    0x50(%ebx),%eax
 804a35d:	8b 4b 04             	mov    0x4(%ebx),%ecx
 804a360:	8b 53 30             	mov    0x30(%ebx),%edx
 804a363:	29 c8                	sub    %ecx,%eax
 804a365:	85 d2                	test   %edx,%edx
 804a367:	89 c7                	mov    %eax,%edi
 804a369:	0f 84 b1 01 00 00    	je     804a520 <_fseeko_r+0x460>
 804a36f:	8b 43 3c             	mov    0x3c(%ebx),%eax
 804a372:	89 45 98             	mov    %eax,-0x68(%ebp)
 804a375:	29 c7                	sub    %eax,%edi
 804a377:	e9 31 ff ff ff       	jmp    804a2ad <_fseeko_r+0x1ed>
 804a37c:	8d 74 26 00          	lea    0x0(%esi,%eiz,1),%esi
 804a380:	8d 45 ac             	lea    -0x54(%ebp),%eax
 804a383:	89 44 24 08          	mov    %eax,0x8(%esp)
 804a387:	0f bf 43 0e          	movswl 0xe(%ebx),%eax
 804a38b:	89 34 24             	mov    %esi,(%esp)
 804a38e:	89 4d a0             	mov    %ecx,-0x60(%ebp)
 804a391:	89 44 24 04          	mov    %eax,0x4(%esp)
 804a395:	e8 e6 01 00 00       	call   804a580 <_fstat_r>
 804a39a:	8b 4d a0             	mov    -0x60(%ebp),%ecx
 804a39d:	85 c0                	test   %eax,%eax
 804a39f:	0f 85 c1 fd ff ff    	jne    804a166 <_fseeko_r+0xa6>
 804a3a5:	8b 45 10             	mov    0x10(%ebp),%eax
 804a3a8:	03 45 bc             	add    -0x44(%ebp),%eax
 804a3ab:	89 45 a0             	mov    %eax,-0x60(%ebp)
 804a3ae:	e9 de fe ff ff       	jmp    804a291 <_fseeko_r+0x1d1>
 804a3b3:	90                   	nop
 804a3b4:	8d 74 26 00          	lea    0x0(%esi,%eiz,1),%esi
 804a3b8:	8b 7b 4c             	mov    0x4c(%ebx),%edi
 804a3bb:	c7 44 24 0c 00 00 00 	movl   $0x0,0xc(%esp)
 804a3c2:	00 
 804a3c3:	f7 df                	neg    %edi
 804a3c5:	23 7d a0             	and    -0x60(%ebp),%edi
 804a3c8:	89 7c 24 08          	mov    %edi,0x8(%esp)
 804a3cc:	8b 43 1c             	mov    0x1c(%ebx),%eax
 804a3cf:	89 34 24             	mov    %esi,(%esp)
 804a3d2:	89 44 24 04          	mov    %eax,0x4(%esp)
 804a3d6:	8b 45 a4             	mov    -0x5c(%ebp),%eax
 804a3d9:	ff d0                	call   *%eax
 804a3db:	83 f8 ff             	cmp    $0xffffffff,%eax
 804a3de:	0f 84 82 fd ff ff    	je     804a166 <_fseeko_r+0xa6>
 804a3e4:	8b 43 10             	mov    0x10(%ebx),%eax
 804a3e7:	c7 43 04 00 00 00 00 	movl   $0x0,0x4(%ebx)
 804a3ee:	89 03                	mov    %eax,(%ebx)
 804a3f0:	8b 43 30             	mov    0x30(%ebx),%eax
 804a3f3:	85 c0                	test   %eax,%eax
 804a3f5:	74 1a                	je     804a411 <_fseeko_r+0x351>
 804a3f7:	8d 4b 40             	lea    0x40(%ebx),%ecx
 804a3fa:	39 c8                	cmp    %ecx,%eax
 804a3fc:	74 0c                	je     804a40a <_fseeko_r+0x34a>
 804a3fe:	89 44 24 04          	mov    %eax,0x4(%esp)
 804a402:	89 34 24             	mov    %esi,(%esp)
 804a405:	e8 16 fa ff ff       	call   8049e20 <_free_r>
 804a40a:	c7 43 30 00 00 00 00 	movl   $0x0,0x30(%ebx)
 804a411:	8b 45 a0             	mov    -0x60(%ebp),%eax
 804a414:	66 83 63 0c df       	andw   $0xffdf,0xc(%ebx)
 804a419:	29 f8                	sub    %edi,%eax
 804a41b:	89 c7                	mov    %eax,%edi
 804a41d:	0f 84 e8 fe ff ff    	je     804a30b <_fseeko_r+0x24b>
 804a423:	89 5c 24 04          	mov    %ebx,0x4(%esp)
 804a427:	89 34 24             	mov    %esi,(%esp)
 804a42a:	e8 21 0d 00 00       	call   804b150 <__srefill_r>
 804a42f:	85 c0                	test   %eax,%eax
 804a431:	0f 85 2f fd ff ff    	jne    804a166 <_fseeko_r+0xa6>
 804a437:	8b 43 04             	mov    0x4(%ebx),%eax
 804a43a:	39 c7                	cmp    %eax,%edi
 804a43c:	0f 87 24 fd ff ff    	ja     804a166 <_fseeko_r+0xa6>
 804a442:	29 f8                	sub    %edi,%eax
 804a444:	01 3b                	add    %edi,(%ebx)
 804a446:	89 43 04             	mov    %eax,0x4(%ebx)
 804a449:	e9 bd fe ff ff       	jmp    804a30b <_fseeko_r+0x24b>
 804a44e:	66 90                	xchg   %ax,%ax
 804a450:	c7 44 24 0c 01 00 00 	movl   $0x1,0xc(%esp)
 804a457:	00 
 804a458:	c7 44 24 08 00 00 00 	movl   $0x0,0x8(%esp)
 804a45f:	00 
 804a460:	8b 43 1c             	mov    0x1c(%ebx),%eax
 804a463:	89 34 24             	mov    %esi,(%esp)
 804a466:	89 44 24 04          	mov    %eax,0x4(%esp)
 804a46a:	8b 45 a4             	mov    -0x5c(%ebp),%eax
 804a46d:	ff d0                	call   *%eax
 804a46f:	83 f8 ff             	cmp    $0xffffffff,%eax
 804a472:	89 c7                	mov    %eax,%edi
 804a474:	0f 84 a1 fc ff ff    	je     804a11b <_fseeko_r+0x5b>
 804a47a:	0f b7 43 0c          	movzwl 0xc(%ebx),%eax
 804a47e:	e9 91 fd ff ff       	jmp    804a214 <_fseeko_r+0x154>
 804a483:	90                   	nop
 804a484:	8d 74 26 00          	lea    0x0(%esi,%eiz,1),%esi
 804a488:	0f b7 53 0e          	movzwl 0xe(%ebx),%edx
 804a48c:	89 4d a0             	mov    %ecx,-0x60(%ebp)
 804a48f:	66 85 d2             	test   %dx,%dx
 804a492:	0f 88 c7 fc ff ff    	js     804a15f <_fseeko_r+0x9f>
 804a498:	8d 45 ac             	lea    -0x54(%ebp),%eax
 804a49b:	89 44 24 08          	mov    %eax,0x8(%esp)
 804a49f:	0f bf c2             	movswl %dx,%eax
 804a4a2:	89 44 24 04          	mov    %eax,0x4(%esp)
 804a4a6:	89 34 24             	mov    %esi,(%esp)
 804a4a9:	e8 d2 00 00 00       	call   804a580 <_fstat_r>
 804a4ae:	8b 4d a0             	mov    -0x60(%ebp),%ecx
 804a4b1:	85 c0                	test   %eax,%eax
 804a4b3:	75 13                	jne    804a4c8 <_fseeko_r+0x408>
 804a4b5:	8b 45 b0             	mov    -0x50(%ebp),%eax
 804a4b8:	25 00 f0 00 00       	and    $0xf000,%eax
 804a4bd:	3d 00 80 00 00       	cmp    $0x8000,%eax
 804a4c2:	0f 84 ab fd ff ff    	je     804a273 <_fseeko_r+0x1b3>
 804a4c8:	0f b7 43 0c          	movzwl 0xc(%ebx),%eax
 804a4cc:	e9 8e fc ff ff       	jmp    804a15f <_fseeko_r+0x9f>
 804a4d1:	8d b4 26 00 00 00 00 	lea    0x0(%esi,%eiz,1),%esi
 804a4d8:	89 5c 24 04          	mov    %ebx,0x4(%esp)
 804a4dc:	89 34 24             	mov    %esi,(%esp)
 804a4df:	89 4d a0             	mov    %ecx,-0x60(%ebp)
 804a4e2:	e8 f9 00 00 00       	call   804a5e0 <__smakebuf_r>
 804a4e7:	8b 4d a0             	mov    -0x60(%ebp),%ecx
 804a4ea:	e9 50 fc ff ff       	jmp    804a13f <_fseeko_r+0x7f>
 804a4ef:	90                   	nop
 804a4f0:	c7 44 24 0c 01 00 00 	movl   $0x1,0xc(%esp)
 804a4f7:	00 
 804a4f8:	c7 44 24 08 00 00 00 	movl   $0x0,0x8(%esp)
 804a4ff:	00 
 804a500:	8b 43 1c             	mov    0x1c(%ebx),%eax
 804a503:	89 34 24             	mov    %esi,(%esp)
 804a506:	89 44 24 04          	mov    %eax,0x4(%esp)
 804a50a:	8b 45 a4             	mov    -0x5c(%ebp),%eax
 804a50d:	ff d0                	call   *%eax
 804a50f:	83 f8 ff             	cmp    $0xffffffff,%eax
 804a512:	0f 85 45 fe ff ff    	jne    804a35d <_fseeko_r+0x29d>
 804a518:	e9 49 fc ff ff       	jmp    804a166 <_fseeko_r+0xa6>
 804a51d:	8d 76 00             	lea    0x0(%esi),%esi
 804a520:	8b 43 10             	mov    0x10(%ebx),%eax
 804a523:	89 c2                	mov    %eax,%edx
 804a525:	89 45 9c             	mov    %eax,-0x64(%ebp)
 804a528:	8b 03                	mov    (%ebx),%eax
 804a52a:	29 d0                	sub    %edx,%eax
 804a52c:	31 d2                	xor    %edx,%edx
 804a52e:	29 c7                	sub    %eax,%edi
 804a530:	01 c8                	add    %ecx,%eax
 804a532:	e9 89 fd ff ff       	jmp    804a2c0 <_fseeko_r+0x200>
 804a537:	c7 06 1d 00 00 00    	movl   $0x1d,(%esi)
 804a53d:	bf ff ff ff ff       	mov    $0xffffffff,%edi
 804a542:	e9 d9 fb ff ff       	jmp    804a120 <_fseeko_r+0x60>
 804a547:	89 f6                	mov    %esi,%esi
 804a549:	8d bc 27 00 00 00 00 	lea    0x0(%edi,%eiz,1),%edi

0804a550 <fseeko>:
 804a550:	55                   	push   %ebp
 804a551:	89 e5                	mov    %esp,%ebp
 804a553:	83 ec 18             	sub    $0x18,%esp
 804a556:	e8 75 00 00 00       	call   804a5d0 <__getreent>
 804a55b:	8b 55 10             	mov    0x10(%ebp),%edx
 804a55e:	89 54 24 0c          	mov    %edx,0xc(%esp)
 804a562:	8b 55 0c             	mov    0xc(%ebp),%edx
 804a565:	89 04 24             	mov    %eax,(%esp)
 804a568:	89 54 24 08          	mov    %edx,0x8(%esp)
 804a56c:	8b 55 08             	mov    0x8(%ebp),%edx
 804a56f:	89 54 24 04          	mov    %edx,0x4(%esp)
 804a573:	e8 48 fb ff ff       	call   804a0c0 <_fseeko_r>
 804a578:	c9                   	leave  
 804a579:	c3                   	ret    
 804a57a:	66 90                	xchg   %ax,%ax
 804a57c:	66 90                	xchg   %ax,%ax
 804a57e:	66 90                	xchg   %ax,%ax

0804a580 <_fstat_r>:
 804a580:	55                   	push   %ebp
 804a581:	89 e5                	mov    %esp,%ebp
 804a583:	83 ec 18             	sub    $0x18,%esp
 804a586:	8b 45 10             	mov    0x10(%ebp),%eax
 804a589:	c7 05 60 6e 08 08 00 	movl   $0x0,0x8086e60
 804a590:	00 00 00 
 804a593:	89 44 24 04          	mov    %eax,0x4(%esp)
 804a597:	8b 45 0c             	mov    0xc(%ebp),%eax
 804a59a:	89 04 24             	mov    %eax,(%esp)
 804a59d:	e8 d1 ec ff ff       	call   8049273 <fstat>
 804a5a2:	83 f8 ff             	cmp    $0xffffffff,%eax
 804a5a5:	74 09                	je     804a5b0 <_fstat_r+0x30>
 804a5a7:	c9                   	leave  
 804a5a8:	c3                   	ret    
 804a5a9:	8d b4 26 00 00 00 00 	lea    0x0(%esi,%eiz,1),%esi
 804a5b0:	8b 15 60 6e 08 08    	mov    0x8086e60,%edx
 804a5b6:	85 d2                	test   %edx,%edx
 804a5b8:	74 ed                	je     804a5a7 <_fstat_r+0x27>
 804a5ba:	8b 4d 08             	mov    0x8(%ebp),%ecx
 804a5bd:	89 11                	mov    %edx,(%ecx)
 804a5bf:	c9                   	leave  
 804a5c0:	c3                   	ret    
 804a5c1:	66 90                	xchg   %ax,%ax
 804a5c3:	66 90                	xchg   %ax,%ax
 804a5c5:	66 90                	xchg   %ax,%ax
 804a5c7:	66 90                	xchg   %ax,%ax
 804a5c9:	66 90                	xchg   %ax,%ax
 804a5cb:	66 90                	xchg   %ax,%ax
 804a5cd:	66 90                	xchg   %ax,%ax
 804a5cf:	90                   	nop

0804a5d0 <__getreent>:
 804a5d0:	55                   	push   %ebp
 804a5d1:	a1 a0 76 05 08       	mov    0x80576a0,%eax
 804a5d6:	89 e5                	mov    %esp,%ebp
 804a5d8:	5d                   	pop    %ebp
 804a5d9:	c3                   	ret    
 804a5da:	66 90                	xchg   %ax,%ax
 804a5dc:	66 90                	xchg   %ax,%ax
 804a5de:	66 90                	xchg   %ax,%ax

0804a5e0 <__smakebuf_r>:
 804a5e0:	55                   	push   %ebp
 804a5e1:	89 e5                	mov    %esp,%ebp
 804a5e3:	57                   	push   %edi
 804a5e4:	56                   	push   %esi
 804a5e5:	53                   	push   %ebx
 804a5e6:	83 ec 5c             	sub    $0x5c,%esp
 804a5e9:	8b 5d 0c             	mov    0xc(%ebp),%ebx
 804a5ec:	0f b7 43 0c          	movzwl 0xc(%ebx),%eax
 804a5f0:	a8 02                	test   $0x2,%al
 804a5f2:	0f 85 c0 00 00 00    	jne    804a6b8 <__smakebuf_r+0xd8>
 804a5f8:	0f bf 53 0e          	movswl 0xe(%ebx),%edx
 804a5fc:	66 85 d2             	test   %dx,%dx
 804a5ff:	78 4b                	js     804a64c <__smakebuf_r+0x6c>
 804a601:	8d 45 ac             	lea    -0x54(%ebp),%eax
 804a604:	89 44 24 08          	mov    %eax,0x8(%esp)
 804a608:	8b 45 08             	mov    0x8(%ebp),%eax
 804a60b:	89 54 24 04          	mov    %edx,0x4(%esp)
 804a60f:	89 04 24             	mov    %eax,(%esp)
 804a612:	e8 69 ff ff ff       	call   804a580 <_fstat_r>
 804a617:	85 c0                	test   %eax,%eax
 804a619:	78 2d                	js     804a648 <__smakebuf_r+0x68>
 804a61b:	8b 45 b0             	mov    -0x50(%ebp),%eax
 804a61e:	31 c9                	xor    %ecx,%ecx
 804a620:	25 00 f0 00 00       	and    $0xf000,%eax
 804a625:	3d 00 20 00 00       	cmp    $0x2000,%eax
 804a62a:	0f 94 c1             	sete   %cl
 804a62d:	3d 00 80 00 00       	cmp    $0x8000,%eax
 804a632:	89 cf                	mov    %ecx,%edi
 804a634:	0f 84 96 00 00 00    	je     804a6d0 <__smakebuf_r+0xf0>
 804a63a:	66 81 4b 0c 00 08    	orw    $0x800,0xc(%ebx)
 804a640:	be 00 04 00 00       	mov    $0x400,%esi
 804a645:	eb 24                	jmp    804a66b <__smakebuf_r+0x8b>
 804a647:	90                   	nop
 804a648:	0f b7 43 0c          	movzwl 0xc(%ebx),%eax
 804a64c:	89 c2                	mov    %eax,%edx
 804a64e:	66 81 e2 80 00       	and    $0x80,%dx
 804a653:	66 83 fa 01          	cmp    $0x1,%dx
 804a657:	19 f6                	sbb    %esi,%esi
 804a659:	80 cc 08             	or     $0x8,%ah
 804a65c:	81 e6 c0 03 00 00    	and    $0x3c0,%esi
 804a662:	31 ff                	xor    %edi,%edi
 804a664:	83 c6 40             	add    $0x40,%esi
 804a667:	66 89 43 0c          	mov    %ax,0xc(%ebx)
 804a66b:	8b 45 08             	mov    0x8(%ebp),%eax
 804a66e:	89 74 24 04          	mov    %esi,0x4(%esp)
 804a672:	89 04 24             	mov    %eax,(%esp)
 804a675:	e8 a6 00 00 00       	call   804a720 <_malloc_r>
 804a67a:	85 c0                	test   %eax,%eax
 804a67c:	74 2a                	je     804a6a8 <__smakebuf_r+0xc8>
 804a67e:	8b 4d 08             	mov    0x8(%ebp),%ecx
 804a681:	c7 41 3c 90 ed 04 08 	movl   $0x804ed90,0x3c(%ecx)
 804a688:	66 81 4b 0c 80 00    	orw    $0x80,0xc(%ebx)
 804a68e:	85 ff                	test   %edi,%edi
 804a690:	89 03                	mov    %eax,(%ebx)
 804a692:	89 43 10             	mov    %eax,0x10(%ebx)
 804a695:	89 73 14             	mov    %esi,0x14(%ebx)
 804a698:	75 5e                	jne    804a6f8 <__smakebuf_r+0x118>
 804a69a:	83 c4 5c             	add    $0x5c,%esp
 804a69d:	5b                   	pop    %ebx
 804a69e:	5e                   	pop    %esi
 804a69f:	5f                   	pop    %edi
 804a6a0:	5d                   	pop    %ebp
 804a6a1:	c3                   	ret    
 804a6a2:	8d b6 00 00 00 00    	lea    0x0(%esi),%esi
 804a6a8:	0f b7 43 0c          	movzwl 0xc(%ebx),%eax
 804a6ac:	f6 c4 02             	test   $0x2,%ah
 804a6af:	75 e9                	jne    804a69a <__smakebuf_r+0xba>
 804a6b1:	83 c8 02             	or     $0x2,%eax
 804a6b4:	66 89 43 0c          	mov    %ax,0xc(%ebx)
 804a6b8:	8d 43 43             	lea    0x43(%ebx),%eax
 804a6bb:	89 03                	mov    %eax,(%ebx)
 804a6bd:	89 43 10             	mov    %eax,0x10(%ebx)
 804a6c0:	c7 43 14 01 00 00 00 	movl   $0x1,0x14(%ebx)
 804a6c7:	83 c4 5c             	add    $0x5c,%esp
 804a6ca:	5b                   	pop    %ebx
 804a6cb:	5e                   	pop    %esi
 804a6cc:	5f                   	pop    %edi
 804a6cd:	5d                   	pop    %ebp
 804a6ce:	c3                   	ret    
 804a6cf:	90                   	nop
 804a6d0:	81 7b 28 40 b4 04 08 	cmpl   $0x804b440,0x28(%ebx)
 804a6d7:	0f 85 5d ff ff ff    	jne    804a63a <__smakebuf_r+0x5a>
 804a6dd:	66 81 4b 0c 00 04    	orw    $0x400,0xc(%ebx)
 804a6e3:	be 00 04 00 00       	mov    $0x400,%esi
 804a6e8:	c7 43 4c 00 04 00 00 	movl   $0x400,0x4c(%ebx)
 804a6ef:	e9 77 ff ff ff       	jmp    804a66b <__smakebuf_r+0x8b>
 804a6f4:	8d 74 26 00          	lea    0x0(%esi,%eiz,1),%esi
 804a6f8:	0f bf 43 0e          	movswl 0xe(%ebx),%eax
 804a6fc:	89 0c 24             	mov    %ecx,(%esp)
 804a6ff:	89 44 24 04          	mov    %eax,0x4(%esp)
 804a703:	e8 28 4c 00 00       	call   804f330 <_isatty_r>
 804a708:	85 c0                	test   %eax,%eax
 804a70a:	74 8e                	je     804a69a <__smakebuf_r+0xba>
 804a70c:	66 83 4b 0c 01       	orw    $0x1,0xc(%ebx)
 804a711:	eb 87                	jmp    804a69a <__smakebuf_r+0xba>
 804a713:	66 90                	xchg   %ax,%ax
 804a715:	66 90                	xchg   %ax,%ax
 804a717:	66 90                	xchg   %ax,%ax
 804a719:	66 90                	xchg   %ax,%ax
 804a71b:	66 90                	xchg   %ax,%ax
 804a71d:	66 90                	xchg   %ax,%ax
 804a71f:	90                   	nop

0804a720 <_malloc_r>:
 804a720:	55                   	push   %ebp
 804a721:	89 e5                	mov    %esp,%ebp
 804a723:	57                   	push   %edi
 804a724:	56                   	push   %esi
 804a725:	53                   	push   %ebx
 804a726:	83 ec 2c             	sub    $0x2c,%esp
 804a729:	8b 45 0c             	mov    0xc(%ebp),%eax
 804a72c:	8d 50 0b             	lea    0xb(%eax),%edx
 804a72f:	83 fa 16             	cmp    $0x16,%edx
 804a732:	76 6c                	jbe    804a7a0 <_malloc_r+0x80>
 804a734:	89 d7                	mov    %edx,%edi
 804a736:	83 e7 f8             	and    $0xfffffff8,%edi
 804a739:	89 fe                	mov    %edi,%esi
 804a73b:	c1 ee 1f             	shr    $0x1f,%esi
 804a73e:	39 c7                	cmp    %eax,%edi
 804a740:	8b 45 08             	mov    0x8(%ebp),%eax
 804a743:	89 f2                	mov    %esi,%edx
 804a745:	72 67                	jb     804a7ae <_malloc_r+0x8e>
 804a747:	84 d2                	test   %dl,%dl
 804a749:	75 63                	jne    804a7ae <_malloc_r+0x8e>
 804a74b:	89 04 24             	mov    %eax,(%esp)
 804a74e:	e8 dd 07 00 00       	call   804af30 <__malloc_lock>
 804a753:	81 ff f7 01 00 00    	cmp    $0x1f7,%edi
 804a759:	77 65                	ja     804a7c0 <_malloc_r+0xa0>
 804a75b:	89 fa                	mov    %edi,%edx
 804a75d:	c1 ea 03             	shr    $0x3,%edx
 804a760:	8d 04 d5 20 7b 05 08 	lea    0x8057b20(,%edx,8),%eax
 804a767:	8b 58 0c             	mov    0xc(%eax),%ebx
 804a76a:	39 c3                	cmp    %eax,%ebx
 804a76c:	0f 84 3e 05 00 00    	je     804acb0 <_malloc_r+0x590>
 804a772:	8b 43 04             	mov    0x4(%ebx),%eax
 804a775:	83 e0 fc             	and    $0xfffffffc,%eax
 804a778:	8b 53 0c             	mov    0xc(%ebx),%edx
 804a77b:	8b 4b 08             	mov    0x8(%ebx),%ecx
 804a77e:	89 51 0c             	mov    %edx,0xc(%ecx)
 804a781:	89 4a 08             	mov    %ecx,0x8(%edx)
 804a784:	83 4c 03 04 01       	orl    $0x1,0x4(%ebx,%eax,1)
 804a789:	8b 45 08             	mov    0x8(%ebp),%eax
 804a78c:	89 04 24             	mov    %eax,(%esp)
 804a78f:	e8 ac 07 00 00       	call   804af40 <__malloc_unlock>
 804a794:	8d 43 08             	lea    0x8(%ebx),%eax
 804a797:	83 c4 2c             	add    $0x2c,%esp
 804a79a:	5b                   	pop    %ebx
 804a79b:	5e                   	pop    %esi
 804a79c:	5f                   	pop    %edi
 804a79d:	5d                   	pop    %ebp
 804a79e:	c3                   	ret    
 804a79f:	90                   	nop
 804a7a0:	bf 10 00 00 00       	mov    $0x10,%edi
 804a7a5:	31 d2                	xor    %edx,%edx
 804a7a7:	39 c7                	cmp    %eax,%edi
 804a7a9:	8b 45 08             	mov    0x8(%ebp),%eax
 804a7ac:	73 99                	jae    804a747 <_malloc_r+0x27>
 804a7ae:	c7 00 0c 00 00 00    	movl   $0xc,(%eax)
 804a7b4:	83 c4 2c             	add    $0x2c,%esp
 804a7b7:	31 c0                	xor    %eax,%eax
 804a7b9:	5b                   	pop    %ebx
 804a7ba:	5e                   	pop    %esi
 804a7bb:	5f                   	pop    %edi
 804a7bc:	5d                   	pop    %ebp
 804a7bd:	c3                   	ret    
 804a7be:	66 90                	xchg   %ax,%ax
 804a7c0:	89 fe                	mov    %edi,%esi
 804a7c2:	c1 ee 09             	shr    $0x9,%esi
 804a7c5:	85 f6                	test   %esi,%esi
 804a7c7:	0f 84 ab 01 00 00    	je     804a978 <_malloc_r+0x258>
 804a7cd:	83 fe 04             	cmp    $0x4,%esi
 804a7d0:	0f 87 8a 03 00 00    	ja     804ab60 <_malloc_r+0x440>
 804a7d6:	89 fe                	mov    %edi,%esi
 804a7d8:	c1 ee 06             	shr    $0x6,%esi
 804a7db:	83 c6 38             	add    $0x38,%esi
 804a7de:	8d 04 36             	lea    (%esi,%esi,1),%eax
 804a7e1:	8d 0c 85 20 7b 05 08 	lea    0x8057b20(,%eax,4),%ecx
 804a7e8:	8b 59 0c             	mov    0xc(%ecx),%ebx
 804a7eb:	39 d9                	cmp    %ebx,%ecx
 804a7ed:	75 18                	jne    804a807 <_malloc_r+0xe7>
 804a7ef:	eb 28                	jmp    804a819 <_malloc_r+0xf9>
 804a7f1:	8d b4 26 00 00 00 00 	lea    0x0(%esi,%eiz,1),%esi
 804a7f8:	85 d2                	test   %edx,%edx
 804a7fa:	0f 89 78 ff ff ff    	jns    804a778 <_malloc_r+0x58>
 804a800:	8b 5b 0c             	mov    0xc(%ebx),%ebx
 804a803:	39 d9                	cmp    %ebx,%ecx
 804a805:	74 12                	je     804a819 <_malloc_r+0xf9>
 804a807:	8b 43 04             	mov    0x4(%ebx),%eax
 804a80a:	83 e0 fc             	and    $0xfffffffc,%eax
 804a80d:	89 c2                	mov    %eax,%edx
 804a80f:	29 fa                	sub    %edi,%edx
 804a811:	83 fa 0f             	cmp    $0xf,%edx
 804a814:	7e e2                	jle    804a7f8 <_malloc_r+0xd8>
 804a816:	83 ee 01             	sub    $0x1,%esi
 804a819:	8d 46 01             	lea    0x1(%esi),%eax
 804a81c:	89 45 e4             	mov    %eax,-0x1c(%ebp)
 804a81f:	8b 1d 30 7b 05 08    	mov    0x8057b30,%ebx
 804a825:	a1 24 7b 05 08       	mov    0x8057b24,%eax
 804a82a:	81 fb 28 7b 05 08    	cmp    $0x8057b28,%ebx
 804a830:	74 6b                	je     804a89d <_malloc_r+0x17d>
 804a832:	8b 73 04             	mov    0x4(%ebx),%esi
 804a835:	83 e6 fc             	and    $0xfffffffc,%esi
 804a838:	89 f0                	mov    %esi,%eax
 804a83a:	29 f8                	sub    %edi,%eax
 804a83c:	83 f8 0f             	cmp    $0xf,%eax
 804a83f:	0f 8f a3 03 00 00    	jg     804abe8 <_malloc_r+0x4c8>
 804a845:	85 c0                	test   %eax,%eax
 804a847:	c7 05 34 7b 05 08 28 	movl   $0x8057b28,0x8057b34
 804a84e:	7b 05 08 
 804a851:	c7 05 30 7b 05 08 28 	movl   $0x8057b28,0x8057b30
 804a858:	7b 05 08 
 804a85b:	0f 89 27 01 00 00    	jns    804a988 <_malloc_r+0x268>
 804a861:	81 fe ff 01 00 00    	cmp    $0x1ff,%esi
 804a867:	0f 87 1b 03 00 00    	ja     804ab88 <_malloc_r+0x468>
 804a86d:	c1 ee 03             	shr    $0x3,%esi
 804a870:	b8 01 00 00 00       	mov    $0x1,%eax
 804a875:	89 f1                	mov    %esi,%ecx
 804a877:	8d 14 f5 20 7b 05 08 	lea    0x8057b20(,%esi,8),%edx
 804a87e:	c1 f9 02             	sar    $0x2,%ecx
 804a881:	d3 e0                	shl    %cl,%eax
 804a883:	8b 4a 08             	mov    0x8(%edx),%ecx
 804a886:	0b 05 24 7b 05 08    	or     0x8057b24,%eax
 804a88c:	89 53 0c             	mov    %edx,0xc(%ebx)
 804a88f:	89 4b 08             	mov    %ecx,0x8(%ebx)
 804a892:	a3 24 7b 05 08       	mov    %eax,0x8057b24
 804a897:	89 5a 08             	mov    %ebx,0x8(%edx)
 804a89a:	89 59 0c             	mov    %ebx,0xc(%ecx)
 804a89d:	8b 4d e4             	mov    -0x1c(%ebp),%ecx
 804a8a0:	be 01 00 00 00       	mov    $0x1,%esi
 804a8a5:	c1 f9 02             	sar    $0x2,%ecx
 804a8a8:	d3 e6                	shl    %cl,%esi
 804a8aa:	39 c6                	cmp    %eax,%esi
 804a8ac:	0f 87 f6 00 00 00    	ja     804a9a8 <_malloc_r+0x288>
 804a8b2:	85 f0                	test   %esi,%eax
 804a8b4:	0f 85 76 03 00 00    	jne    804ac30 <_malloc_r+0x510>
 804a8ba:	8b 55 e4             	mov    -0x1c(%ebp),%edx
 804a8bd:	01 f6                	add    %esi,%esi
 804a8bf:	83 e2 fc             	and    $0xfffffffc,%edx
 804a8c2:	85 f0                	test   %esi,%eax
 804a8c4:	8d 4a 04             	lea    0x4(%edx),%ecx
 804a8c7:	89 4d e4             	mov    %ecx,-0x1c(%ebp)
 804a8ca:	0f 85 60 03 00 00    	jne    804ac30 <_malloc_r+0x510>
 804a8d0:	89 ca                	mov    %ecx,%edx
 804a8d2:	8d b6 00 00 00 00    	lea    0x0(%esi),%esi
 804a8d8:	01 f6                	add    %esi,%esi
 804a8da:	83 c2 04             	add    $0x4,%edx
 804a8dd:	85 f0                	test   %esi,%eax
 804a8df:	74 f7                	je     804a8d8 <_malloc_r+0x1b8>
 804a8e1:	89 55 e4             	mov    %edx,-0x1c(%ebp)
 804a8e4:	89 75 dc             	mov    %esi,-0x24(%ebp)
 804a8e7:	8b 45 e4             	mov    -0x1c(%ebp),%eax
 804a8ea:	8d 34 c5 20 7b 05 08 	lea    0x8057b20(,%eax,8),%esi
 804a8f1:	89 f1                	mov    %esi,%ecx
 804a8f3:	89 45 e0             	mov    %eax,-0x20(%ebp)
 804a8f6:	8b 59 0c             	mov    0xc(%ecx),%ebx
 804a8f9:	39 d9                	cmp    %ebx,%ecx
 804a8fb:	75 1e                	jne    804a91b <_malloc_r+0x1fb>
 804a8fd:	e9 36 03 00 00       	jmp    804ac38 <_malloc_r+0x518>
 804a902:	8d b6 00 00 00 00    	lea    0x0(%esi),%esi
 804a908:	85 d2                	test   %edx,%edx
 804a90a:	0f 89 c0 03 00 00    	jns    804acd0 <_malloc_r+0x5b0>
 804a910:	8b 5b 0c             	mov    0xc(%ebx),%ebx
 804a913:	39 d9                	cmp    %ebx,%ecx
 804a915:	0f 84 1d 03 00 00    	je     804ac38 <_malloc_r+0x518>
 804a91b:	8b 43 04             	mov    0x4(%ebx),%eax
 804a91e:	83 e0 fc             	and    $0xfffffffc,%eax
 804a921:	89 c2                	mov    %eax,%edx
 804a923:	29 fa                	sub    %edi,%edx
 804a925:	83 fa 0f             	cmp    $0xf,%edx
 804a928:	7e de                	jle    804a908 <_malloc_r+0x1e8>
 804a92a:	8b 4b 0c             	mov    0xc(%ebx),%ecx
 804a92d:	8d 04 3b             	lea    (%ebx,%edi,1),%eax
 804a930:	83 cf 01             	or     $0x1,%edi
 804a933:	8b 73 08             	mov    0x8(%ebx),%esi
 804a936:	89 7b 04             	mov    %edi,0x4(%ebx)
 804a939:	89 4e 0c             	mov    %ecx,0xc(%esi)
 804a93c:	89 71 08             	mov    %esi,0x8(%ecx)
 804a93f:	89 d1                	mov    %edx,%ecx
 804a941:	83 c9 01             	or     $0x1,%ecx
 804a944:	a3 34 7b 05 08       	mov    %eax,0x8057b34
 804a949:	a3 30 7b 05 08       	mov    %eax,0x8057b30
 804a94e:	c7 40 0c 28 7b 05 08 	movl   $0x8057b28,0xc(%eax)
 804a955:	c7 40 08 28 7b 05 08 	movl   $0x8057b28,0x8(%eax)
 804a95c:	89 48 04             	mov    %ecx,0x4(%eax)
 804a95f:	89 14 10             	mov    %edx,(%eax,%edx,1)
 804a962:	8b 45 08             	mov    0x8(%ebp),%eax
 804a965:	89 04 24             	mov    %eax,(%esp)
 804a968:	e8 d3 05 00 00       	call   804af40 <__malloc_unlock>
 804a96d:	8d 43 08             	lea    0x8(%ebx),%eax
 804a970:	e9 22 fe ff ff       	jmp    804a797 <_malloc_r+0x77>
 804a975:	8d 76 00             	lea    0x0(%esi),%esi
 804a978:	b8 7e 00 00 00       	mov    $0x7e,%eax
 804a97d:	be 3f 00 00 00       	mov    $0x3f,%esi
 804a982:	e9 5a fe ff ff       	jmp    804a7e1 <_malloc_r+0xc1>
 804a987:	90                   	nop
 804a988:	8b 45 08             	mov    0x8(%ebp),%eax
 804a98b:	83 4c 33 04 01       	orl    $0x1,0x4(%ebx,%esi,1)
 804a990:	89 04 24             	mov    %eax,(%esp)
 804a993:	e8 a8 05 00 00       	call   804af40 <__malloc_unlock>
 804a998:	83 c4 2c             	add    $0x2c,%esp
 804a99b:	8d 43 08             	lea    0x8(%ebx),%eax
 804a99e:	5b                   	pop    %ebx
 804a99f:	5e                   	pop    %esi
 804a9a0:	5f                   	pop    %edi
 804a9a1:	5d                   	pop    %ebp
 804a9a2:	c3                   	ret    
 804a9a3:	90                   	nop
 804a9a4:	8d 74 26 00          	lea    0x0(%esi,%eiz,1),%esi
 804a9a8:	8b 1d 28 7b 05 08    	mov    0x8057b28,%ebx
 804a9ae:	8b 73 04             	mov    0x4(%ebx),%esi
 804a9b1:	83 e6 fc             	and    $0xfffffffc,%esi
 804a9b4:	39 f7                	cmp    %esi,%edi
 804a9b6:	77 0d                	ja     804a9c5 <_malloc_r+0x2a5>
 804a9b8:	89 f0                	mov    %esi,%eax
 804a9ba:	29 f8                	sub    %edi,%eax
 804a9bc:	83 f8 0f             	cmp    $0xf,%eax
 804a9bf:	0f 8f 6b 01 00 00    	jg     804ab30 <_malloc_r+0x410>
 804a9c5:	8b 0d 50 6e 08 08    	mov    0x8086e50,%ecx
 804a9cb:	8d 04 33             	lea    (%ebx,%esi,1),%eax
 804a9ce:	89 45 e4             	mov    %eax,-0x1c(%ebp)
 804a9d1:	01 f9                	add    %edi,%ecx
 804a9d3:	8d 81 0f 10 00 00    	lea    0x100f(%ecx),%eax
 804a9d9:	83 c1 10             	add    $0x10,%ecx
 804a9dc:	25 00 f0 ff ff       	and    $0xfffff000,%eax
 804a9e1:	83 3d 00 7b 05 08 ff 	cmpl   $0xffffffff,0x8057b00
 804a9e8:	0f 44 c1             	cmove  %ecx,%eax
 804a9eb:	89 45 e0             	mov    %eax,-0x20(%ebp)
 804a9ee:	89 44 24 04          	mov    %eax,0x4(%esp)
 804a9f2:	8b 45 08             	mov    0x8(%ebp),%eax
 804a9f5:	89 04 24             	mov    %eax,(%esp)
 804a9f8:	e8 33 09 00 00       	call   804b330 <_sbrk_r>
 804a9fd:	83 f8 ff             	cmp    $0xffffffff,%eax
 804aa00:	89 c1                	mov    %eax,%ecx
 804aa02:	0f 84 17 03 00 00    	je     804ad1f <_malloc_r+0x5ff>
 804aa08:	39 45 e4             	cmp    %eax,-0x1c(%ebp)
 804aa0b:	0f 87 02 03 00 00    	ja     804ad13 <_malloc_r+0x5f3>
 804aa11:	8b 55 e0             	mov    -0x20(%ebp),%edx
 804aa14:	03 15 20 6e 08 08    	add    0x8086e20,%edx
 804aa1a:	39 4d e4             	cmp    %ecx,-0x1c(%ebp)
 804aa1d:	89 15 20 6e 08 08    	mov    %edx,0x8086e20
 804aa23:	0f 84 a9 03 00 00    	je     804add2 <_malloc_r+0x6b2>
 804aa29:	83 3d 00 7b 05 08 ff 	cmpl   $0xffffffff,0x8057b00
 804aa30:	0f 84 ca 03 00 00    	je     804ae00 <_malloc_r+0x6e0>
 804aa36:	89 c8                	mov    %ecx,%eax
 804aa38:	2b 45 e4             	sub    -0x1c(%ebp),%eax
 804aa3b:	01 d0                	add    %edx,%eax
 804aa3d:	a3 20 6e 08 08       	mov    %eax,0x8086e20
 804aa42:	89 c8                	mov    %ecx,%eax
 804aa44:	ba 00 10 00 00       	mov    $0x1000,%edx
 804aa49:	83 e0 07             	and    $0x7,%eax
 804aa4c:	74 0c                	je     804aa5a <_malloc_r+0x33a>
 804aa4e:	29 c1                	sub    %eax,%ecx
 804aa50:	ba 08 10 00 00       	mov    $0x1008,%edx
 804aa55:	8d 49 08             	lea    0x8(%ecx),%ecx
 804aa58:	29 c2                	sub    %eax,%edx
 804aa5a:	8b 45 e0             	mov    -0x20(%ebp),%eax
 804aa5d:	89 4d e4             	mov    %ecx,-0x1c(%ebp)
 804aa60:	01 c8                	add    %ecx,%eax
 804aa62:	25 ff 0f 00 00       	and    $0xfff,%eax
 804aa67:	29 c2                	sub    %eax,%edx
 804aa69:	8b 45 08             	mov    0x8(%ebp),%eax
 804aa6c:	89 54 24 04          	mov    %edx,0x4(%esp)
 804aa70:	89 55 e0             	mov    %edx,-0x20(%ebp)
 804aa73:	89 04 24             	mov    %eax,(%esp)
 804aa76:	e8 b5 08 00 00       	call   804b330 <_sbrk_r>
 804aa7b:	8b 4d e4             	mov    -0x1c(%ebp),%ecx
 804aa7e:	83 f8 ff             	cmp    $0xffffffff,%eax
 804aa81:	0f 84 6d 03 00 00    	je     804adf4 <_malloc_r+0x6d4>
 804aa87:	8b 55 e0             	mov    -0x20(%ebp),%edx
 804aa8a:	29 c8                	sub    %ecx,%eax
 804aa8c:	01 d0                	add    %edx,%eax
 804aa8e:	83 c8 01             	or     $0x1,%eax
 804aa91:	03 15 20 6e 08 08    	add    0x8086e20,%edx
 804aa97:	81 fb 20 7b 05 08    	cmp    $0x8057b20,%ebx
 804aa9d:	89 0d 28 7b 05 08    	mov    %ecx,0x8057b28
 804aaa3:	89 41 04             	mov    %eax,0x4(%ecx)
 804aaa6:	89 15 20 6e 08 08    	mov    %edx,0x8086e20
 804aaac:	0f 84 f2 02 00 00    	je     804ada4 <_malloc_r+0x684>
 804aab2:	83 fe 0f             	cmp    $0xf,%esi
 804aab5:	0f 86 8d 02 00 00    	jbe    804ad48 <_malloc_r+0x628>
 804aabb:	8b 43 04             	mov    0x4(%ebx),%eax
 804aabe:	83 ee 0c             	sub    $0xc,%esi
 804aac1:	83 e6 f8             	and    $0xfffffff8,%esi
 804aac4:	83 e0 01             	and    $0x1,%eax
 804aac7:	09 f0                	or     %esi,%eax
 804aac9:	83 fe 0f             	cmp    $0xf,%esi
 804aacc:	89 43 04             	mov    %eax,0x4(%ebx)
 804aacf:	a1 28 7b 05 08       	mov    0x8057b28,%eax
 804aad4:	c7 44 33 04 05 00 00 	movl   $0x5,0x4(%ebx,%esi,1)
 804aadb:	00 
 804aadc:	c7 44 33 08 05 00 00 	movl   $0x5,0x8(%ebx,%esi,1)
 804aae3:	00 
 804aae4:	0f 87 a2 02 00 00    	ja     804ad8c <_malloc_r+0x66c>
 804aaea:	3b 15 4c 6e 08 08    	cmp    0x8086e4c,%edx
 804aaf0:	76 06                	jbe    804aaf8 <_malloc_r+0x3d8>
 804aaf2:	89 15 4c 6e 08 08    	mov    %edx,0x8086e4c
 804aaf8:	3b 15 48 6e 08 08    	cmp    0x8086e48,%edx
 804aafe:	76 06                	jbe    804ab06 <_malloc_r+0x3e6>
 804ab00:	89 15 48 6e 08 08    	mov    %edx,0x8086e48
 804ab06:	8b 50 04             	mov    0x4(%eax),%edx
 804ab09:	89 c3                	mov    %eax,%ebx
 804ab0b:	83 e2 fc             	and    $0xfffffffc,%edx
 804ab0e:	89 d0                	mov    %edx,%eax
 804ab10:	29 f8                	sub    %edi,%eax
 804ab12:	39 d7                	cmp    %edx,%edi
 804ab14:	77 05                	ja     804ab1b <_malloc_r+0x3fb>
 804ab16:	83 f8 0f             	cmp    $0xf,%eax
 804ab19:	7f 15                	jg     804ab30 <_malloc_r+0x410>
 804ab1b:	8b 45 08             	mov    0x8(%ebp),%eax
 804ab1e:	89 04 24             	mov    %eax,(%esp)
 804ab21:	e8 1a 04 00 00       	call   804af40 <__malloc_unlock>
 804ab26:	31 c0                	xor    %eax,%eax
 804ab28:	e9 6a fc ff ff       	jmp    804a797 <_malloc_r+0x77>
 804ab2d:	8d 76 00             	lea    0x0(%esi),%esi
 804ab30:	89 fa                	mov    %edi,%edx
 804ab32:	83 c8 01             	or     $0x1,%eax
 804ab35:	83 ca 01             	or     $0x1,%edx
 804ab38:	89 53 04             	mov    %edx,0x4(%ebx)
 804ab3b:	8d 14 3b             	lea    (%ebx,%edi,1),%edx
 804ab3e:	89 15 28 7b 05 08    	mov    %edx,0x8057b28
 804ab44:	89 42 04             	mov    %eax,0x4(%edx)
 804ab47:	8b 45 08             	mov    0x8(%ebp),%eax
 804ab4a:	89 04 24             	mov    %eax,(%esp)
 804ab4d:	e8 ee 03 00 00       	call   804af40 <__malloc_unlock>
 804ab52:	83 c4 2c             	add    $0x2c,%esp
 804ab55:	8d 43 08             	lea    0x8(%ebx),%eax
 804ab58:	5b                   	pop    %ebx
 804ab59:	5e                   	pop    %esi
 804ab5a:	5f                   	pop    %edi
 804ab5b:	5d                   	pop    %ebp
 804ab5c:	c3                   	ret    
 804ab5d:	8d 76 00             	lea    0x0(%esi),%esi
 804ab60:	83 fe 14             	cmp    $0x14,%esi
 804ab63:	0f 86 8f 01 00 00    	jbe    804acf8 <_malloc_r+0x5d8>
 804ab69:	83 fe 54             	cmp    $0x54,%esi
 804ab6c:	0f 87 be 01 00 00    	ja     804ad30 <_malloc_r+0x610>
 804ab72:	89 fe                	mov    %edi,%esi
 804ab74:	c1 ee 0c             	shr    $0xc,%esi
 804ab77:	83 c6 6e             	add    $0x6e,%esi
 804ab7a:	8d 04 36             	lea    (%esi,%esi,1),%eax
 804ab7d:	e9 5f fc ff ff       	jmp    804a7e1 <_malloc_r+0xc1>
 804ab82:	8d b6 00 00 00 00    	lea    0x0(%esi),%esi
 804ab88:	89 f1                	mov    %esi,%ecx
 804ab8a:	c1 e9 09             	shr    $0x9,%ecx
 804ab8d:	83 f9 04             	cmp    $0x4,%ecx
 804ab90:	0f 86 6d 01 00 00    	jbe    804ad03 <_malloc_r+0x5e3>
 804ab96:	83 f9 14             	cmp    $0x14,%ecx
 804ab99:	0f 87 0f 02 00 00    	ja     804adae <_malloc_r+0x68e>
 804ab9f:	83 c1 5b             	add    $0x5b,%ecx
 804aba2:	8d 04 09             	lea    (%ecx,%ecx,1),%eax
 804aba5:	8d 04 85 20 7b 05 08 	lea    0x8057b20(,%eax,4),%eax
 804abac:	8b 50 08             	mov    0x8(%eax),%edx
 804abaf:	39 c2                	cmp    %eax,%edx
 804abb1:	0f 84 a1 01 00 00    	je     804ad58 <_malloc_r+0x638>
 804abb7:	90                   	nop
 804abb8:	8b 4a 04             	mov    0x4(%edx),%ecx
 804abbb:	83 e1 fc             	and    $0xfffffffc,%ecx
 804abbe:	39 ce                	cmp    %ecx,%esi
 804abc0:	73 07                	jae    804abc9 <_malloc_r+0x4a9>
 804abc2:	8b 52 08             	mov    0x8(%edx),%edx
 804abc5:	39 d0                	cmp    %edx,%eax
 804abc7:	75 ef                	jne    804abb8 <_malloc_r+0x498>
 804abc9:	8b 4a 0c             	mov    0xc(%edx),%ecx
 804abcc:	a1 24 7b 05 08       	mov    0x8057b24,%eax
 804abd1:	89 4b 0c             	mov    %ecx,0xc(%ebx)
 804abd4:	89 53 08             	mov    %edx,0x8(%ebx)
 804abd7:	89 59 08             	mov    %ebx,0x8(%ecx)
 804abda:	89 5a 0c             	mov    %ebx,0xc(%edx)
 804abdd:	e9 bb fc ff ff       	jmp    804a89d <_malloc_r+0x17d>
 804abe2:	8d b6 00 00 00 00    	lea    0x0(%esi),%esi
 804abe8:	89 c1                	mov    %eax,%ecx
 804abea:	8d 14 3b             	lea    (%ebx,%edi,1),%edx
 804abed:	83 c9 01             	or     $0x1,%ecx
 804abf0:	83 cf 01             	or     $0x1,%edi
 804abf3:	89 7b 04             	mov    %edi,0x4(%ebx)
 804abf6:	89 15 34 7b 05 08    	mov    %edx,0x8057b34
 804abfc:	89 15 30 7b 05 08    	mov    %edx,0x8057b30
 804ac02:	c7 42 0c 28 7b 05 08 	movl   $0x8057b28,0xc(%edx)
 804ac09:	c7 42 08 28 7b 05 08 	movl   $0x8057b28,0x8(%edx)
 804ac10:	89 4a 04             	mov    %ecx,0x4(%edx)
 804ac13:	89 04 02             	mov    %eax,(%edx,%eax,1)
 804ac16:	8b 45 08             	mov    0x8(%ebp),%eax
 804ac19:	89 04 24             	mov    %eax,(%esp)
 804ac1c:	e8 1f 03 00 00       	call   804af40 <__malloc_unlock>
 804ac21:	8d 43 08             	lea    0x8(%ebx),%eax
 804ac24:	e9 6e fb ff ff       	jmp    804a797 <_malloc_r+0x77>
 804ac29:	8d b4 26 00 00 00 00 	lea    0x0(%esi,%eiz,1),%esi
 804ac30:	89 75 dc             	mov    %esi,-0x24(%ebp)
 804ac33:	e9 af fc ff ff       	jmp    804a8e7 <_malloc_r+0x1c7>
 804ac38:	83 45 e0 01          	addl   $0x1,-0x20(%ebp)
 804ac3c:	83 c1 08             	add    $0x8,%ecx
 804ac3f:	f6 45 e0 03          	testb  $0x3,-0x20(%ebp)
 804ac43:	0f 85 ad fc ff ff    	jne    804a8f6 <_malloc_r+0x1d6>
 804ac49:	8b 45 e4             	mov    -0x1c(%ebp),%eax
 804ac4c:	eb 12                	jmp    804ac60 <_malloc_r+0x540>
 804ac4e:	66 90                	xchg   %ax,%ax
 804ac50:	8d 56 f8             	lea    -0x8(%esi),%edx
 804ac53:	8b 36                	mov    (%esi),%esi
 804ac55:	83 e8 01             	sub    $0x1,%eax
 804ac58:	39 d6                	cmp    %edx,%esi
 804ac5a:	0f 85 ea 01 00 00    	jne    804ae4a <_malloc_r+0x72a>
 804ac60:	a8 03                	test   $0x3,%al
 804ac62:	75 ec                	jne    804ac50 <_malloc_r+0x530>
 804ac64:	8b 45 dc             	mov    -0x24(%ebp),%eax
 804ac67:	f7 d0                	not    %eax
 804ac69:	23 05 24 7b 05 08    	and    0x8057b24,%eax
 804ac6f:	a3 24 7b 05 08       	mov    %eax,0x8057b24
 804ac74:	d1 65 dc             	shll   -0x24(%ebp)
 804ac77:	8b 55 dc             	mov    -0x24(%ebp),%edx
 804ac7a:	39 c2                	cmp    %eax,%edx
 804ac7c:	0f 87 26 fd ff ff    	ja     804a9a8 <_malloc_r+0x288>
 804ac82:	85 d2                	test   %edx,%edx
 804ac84:	0f 84 1e fd ff ff    	je     804a9a8 <_malloc_r+0x288>
 804ac8a:	85 c2                	test   %eax,%edx
 804ac8c:	0f 85 c2 01 00 00    	jne    804ae54 <_malloc_r+0x734>
 804ac92:	8b 75 e0             	mov    -0x20(%ebp),%esi
 804ac95:	89 f1                	mov    %esi,%ecx
 804ac97:	01 d2                	add    %edx,%edx
 804ac99:	83 c1 04             	add    $0x4,%ecx
 804ac9c:	85 d0                	test   %edx,%eax
 804ac9e:	74 f7                	je     804ac97 <_malloc_r+0x577>
 804aca0:	89 4d e4             	mov    %ecx,-0x1c(%ebp)
 804aca3:	89 55 dc             	mov    %edx,-0x24(%ebp)
 804aca6:	e9 3c fc ff ff       	jmp    804a8e7 <_malloc_r+0x1c7>
 804acab:	90                   	nop
 804acac:	8d 74 26 00          	lea    0x0(%esi,%eiz,1),%esi
 804acb0:	8d 43 08             	lea    0x8(%ebx),%eax
 804acb3:	8b 5b 14             	mov    0x14(%ebx),%ebx
 804acb6:	39 d8                	cmp    %ebx,%eax
 804acb8:	0f 85 b4 fa ff ff    	jne    804a772 <_malloc_r+0x52>
 804acbe:	8d 42 02             	lea    0x2(%edx),%eax
 804acc1:	89 45 e4             	mov    %eax,-0x1c(%ebp)
 804acc4:	e9 56 fb ff ff       	jmp    804a81f <_malloc_r+0xff>
 804acc9:	8d b4 26 00 00 00 00 	lea    0x0(%esi,%eiz,1),%esi
 804acd0:	83 4c 03 04 01       	orl    $0x1,0x4(%ebx,%eax,1)
 804acd5:	8b 53 08             	mov    0x8(%ebx),%edx
 804acd8:	8b 43 0c             	mov    0xc(%ebx),%eax
 804acdb:	89 42 0c             	mov    %eax,0xc(%edx)
 804acde:	89 50 08             	mov    %edx,0x8(%eax)
 804ace1:	8b 45 08             	mov    0x8(%ebp),%eax
 804ace4:	89 04 24             	mov    %eax,(%esp)
 804ace7:	e8 54 02 00 00       	call   804af40 <__malloc_unlock>
 804acec:	8d 43 08             	lea    0x8(%ebx),%eax
 804acef:	e9 a3 fa ff ff       	jmp    804a797 <_malloc_r+0x77>
 804acf4:	8d 74 26 00          	lea    0x0(%esi,%eiz,1),%esi
 804acf8:	83 c6 5b             	add    $0x5b,%esi
 804acfb:	8d 04 36             	lea    (%esi,%esi,1),%eax
 804acfe:	e9 de fa ff ff       	jmp    804a7e1 <_malloc_r+0xc1>
 804ad03:	89 f1                	mov    %esi,%ecx
 804ad05:	c1 e9 06             	shr    $0x6,%ecx
 804ad08:	83 c1 38             	add    $0x38,%ecx
 804ad0b:	8d 04 09             	lea    (%ecx,%ecx,1),%eax
 804ad0e:	e9 92 fe ff ff       	jmp    804aba5 <_malloc_r+0x485>
 804ad13:	81 fb 20 7b 05 08    	cmp    $0x8057b20,%ebx
 804ad19:	0f 84 f2 fc ff ff    	je     804aa11 <_malloc_r+0x2f1>
 804ad1f:	8b 1d 28 7b 05 08    	mov    0x8057b28,%ebx
 804ad25:	8b 53 04             	mov    0x4(%ebx),%edx
 804ad28:	83 e2 fc             	and    $0xfffffffc,%edx
 804ad2b:	e9 de fd ff ff       	jmp    804ab0e <_malloc_r+0x3ee>
 804ad30:	81 fe 54 01 00 00    	cmp    $0x154,%esi
 804ad36:	77 3c                	ja     804ad74 <_malloc_r+0x654>
 804ad38:	89 fe                	mov    %edi,%esi
 804ad3a:	c1 ee 0f             	shr    $0xf,%esi
 804ad3d:	83 c6 77             	add    $0x77,%esi
 804ad40:	8d 04 36             	lea    (%esi,%esi,1),%eax
 804ad43:	e9 99 fa ff ff       	jmp    804a7e1 <_malloc_r+0xc1>
 804ad48:	c7 41 04 01 00 00 00 	movl   $0x1,0x4(%ecx)
 804ad4f:	89 cb                	mov    %ecx,%ebx
 804ad51:	31 d2                	xor    %edx,%edx
 804ad53:	e9 b6 fd ff ff       	jmp    804ab0e <_malloc_r+0x3ee>
 804ad58:	c1 f9 02             	sar    $0x2,%ecx
 804ad5b:	b8 01 00 00 00       	mov    $0x1,%eax
 804ad60:	d3 e0                	shl    %cl,%eax
 804ad62:	89 d1                	mov    %edx,%ecx
 804ad64:	0b 05 24 7b 05 08    	or     0x8057b24,%eax
 804ad6a:	a3 24 7b 05 08       	mov    %eax,0x8057b24
 804ad6f:	e9 5d fe ff ff       	jmp    804abd1 <_malloc_r+0x4b1>
 804ad74:	81 fe 54 05 00 00    	cmp    $0x554,%esi
 804ad7a:	77 47                	ja     804adc3 <_malloc_r+0x6a3>
 804ad7c:	89 fe                	mov    %edi,%esi
 804ad7e:	c1 ee 12             	shr    $0x12,%esi
 804ad81:	83 c6 7c             	add    $0x7c,%esi
 804ad84:	8d 04 36             	lea    (%esi,%esi,1),%eax
 804ad87:	e9 55 fa ff ff       	jmp    804a7e1 <_malloc_r+0xc1>
 804ad8c:	8b 45 08             	mov    0x8(%ebp),%eax
 804ad8f:	83 c3 08             	add    $0x8,%ebx
 804ad92:	89 5c 24 04          	mov    %ebx,0x4(%esp)
 804ad96:	89 04 24             	mov    %eax,(%esp)
 804ad99:	e8 82 f0 ff ff       	call   8049e20 <_free_r>
 804ad9e:	8b 15 20 6e 08 08    	mov    0x8086e20,%edx
 804ada4:	a1 28 7b 05 08       	mov    0x8057b28,%eax
 804ada9:	e9 3c fd ff ff       	jmp    804aaea <_malloc_r+0x3ca>
 804adae:	83 f9 54             	cmp    $0x54,%ecx
 804adb1:	77 58                	ja     804ae0b <_malloc_r+0x6eb>
 804adb3:	89 f1                	mov    %esi,%ecx
 804adb5:	c1 e9 0c             	shr    $0xc,%ecx
 804adb8:	83 c1 6e             	add    $0x6e,%ecx
 804adbb:	8d 04 09             	lea    (%ecx,%ecx,1),%eax
 804adbe:	e9 e2 fd ff ff       	jmp    804aba5 <_malloc_r+0x485>
 804adc3:	b8 fc 00 00 00       	mov    $0xfc,%eax
 804adc8:	be 7e 00 00 00       	mov    $0x7e,%esi
 804adcd:	e9 0f fa ff ff       	jmp    804a7e1 <_malloc_r+0xc1>
 804add2:	f7 45 e4 ff 0f 00 00 	testl  $0xfff,-0x1c(%ebp)
 804add9:	0f 85 4a fc ff ff    	jne    804aa29 <_malloc_r+0x309>
 804addf:	8b 4d e0             	mov    -0x20(%ebp),%ecx
 804ade2:	a1 28 7b 05 08       	mov    0x8057b28,%eax
 804ade7:	01 f1                	add    %esi,%ecx
 804ade9:	83 c9 01             	or     $0x1,%ecx
 804adec:	89 48 04             	mov    %ecx,0x4(%eax)
 804adef:	e9 f6 fc ff ff       	jmp    804aaea <_malloc_r+0x3ca>
 804adf4:	b8 01 00 00 00       	mov    $0x1,%eax
 804adf9:	31 d2                	xor    %edx,%edx
 804adfb:	e9 91 fc ff ff       	jmp    804aa91 <_malloc_r+0x371>
 804ae00:	89 0d 00 7b 05 08    	mov    %ecx,0x8057b00
 804ae06:	e9 37 fc ff ff       	jmp    804aa42 <_malloc_r+0x322>
 804ae0b:	81 f9 54 01 00 00    	cmp    $0x154,%ecx
 804ae11:	77 10                	ja     804ae23 <_malloc_r+0x703>
 804ae13:	89 f1                	mov    %esi,%ecx
 804ae15:	c1 e9 0f             	shr    $0xf,%ecx
 804ae18:	83 c1 77             	add    $0x77,%ecx
 804ae1b:	8d 04 09             	lea    (%ecx,%ecx,1),%eax
 804ae1e:	e9 82 fd ff ff       	jmp    804aba5 <_malloc_r+0x485>
 804ae23:	81 f9 54 05 00 00    	cmp    $0x554,%ecx
 804ae29:	77 10                	ja     804ae3b <_malloc_r+0x71b>
 804ae2b:	89 f1                	mov    %esi,%ecx
 804ae2d:	c1 e9 12             	shr    $0x12,%ecx
 804ae30:	83 c1 7c             	add    $0x7c,%ecx
 804ae33:	8d 04 09             	lea    (%ecx,%ecx,1),%eax
 804ae36:	e9 6a fd ff ff       	jmp    804aba5 <_malloc_r+0x485>
 804ae3b:	b8 fc 00 00 00       	mov    $0xfc,%eax
 804ae40:	b9 7e 00 00 00       	mov    $0x7e,%ecx
 804ae45:	e9 5b fd ff ff       	jmp    804aba5 <_malloc_r+0x485>
 804ae4a:	a1 24 7b 05 08       	mov    0x8057b24,%eax
 804ae4f:	e9 20 fe ff ff       	jmp    804ac74 <_malloc_r+0x554>
 804ae54:	8b 45 e0             	mov    -0x20(%ebp),%eax
 804ae57:	89 45 e4             	mov    %eax,-0x1c(%ebp)
 804ae5a:	e9 88 fa ff ff       	jmp    804a8e7 <_malloc_r+0x1c7>
 804ae5f:	90                   	nop

0804ae60 <memcpy>:
 804ae60:	55                   	push   %ebp
 804ae61:	89 e5                	mov    %esp,%ebp
 804ae63:	56                   	push   %esi
 804ae64:	57                   	push   %edi
 804ae65:	53                   	push   %ebx
 804ae66:	8b 7d 08             	mov    0x8(%ebp),%edi
 804ae69:	8b 4d 10             	mov    0x10(%ebp),%ecx
 804ae6c:	8b 75 0c             	mov    0xc(%ebp),%esi
 804ae6f:	fc                   	cld    
 804ae70:	83 f9 08             	cmp    $0x8,%ecx
 804ae73:	76 26                	jbe    804ae9b <memcpy+0x3b>
 804ae75:	89 fa                	mov    %edi,%edx
 804ae77:	89 cb                	mov    %ecx,%ebx
 804ae79:	83 e2 03             	and    $0x3,%edx
 804ae7c:	74 10                	je     804ae8e <memcpy+0x2e>
 804ae7e:	b9 04 00 00 00       	mov    $0x4,%ecx
 804ae83:	29 d1                	sub    %edx,%ecx
 804ae85:	83 e1 03             	and    $0x3,%ecx
 804ae88:	29 cb                	sub    %ecx,%ebx
 804ae8a:	f3 a4                	rep movsb %ds:(%esi),%es:(%edi)
 804ae8c:	89 d9                	mov    %ebx,%ecx
 804ae8e:	c1 e9 02             	shr    $0x2,%ecx
 804ae91:	8d 76 00             	lea    0x0(%esi),%esi
 804ae94:	f3 a5                	rep movsl %ds:(%esi),%es:(%edi)
 804ae96:	89 d9                	mov    %ebx,%ecx
 804ae98:	83 e1 03             	and    $0x3,%ecx
 804ae9b:	f3 a4                	rep movsb %ds:(%esi),%es:(%edi)
 804ae9d:	8b 45 08             	mov    0x8(%ebp),%eax
 804aea0:	8d 65 f4             	lea    -0xc(%ebp),%esp
 804aea3:	5b                   	pop    %ebx
 804aea4:	5f                   	pop    %edi
 804aea5:	5e                   	pop    %esi
 804aea6:	c9                   	leave  
 804aea7:	c3                   	ret    

0804aea8 <memset>:
 804aea8:	55                   	push   %ebp
 804aea9:	89 e5                	mov    %esp,%ebp
 804aeab:	57                   	push   %edi
 804aeac:	8b 7d 08             	mov    0x8(%ebp),%edi
 804aeaf:	0f b6 45 0c          	movzbl 0xc(%ebp),%eax
 804aeb3:	8b 4d 10             	mov    0x10(%ebp),%ecx
 804aeb6:	fc                   	cld    
 804aeb7:	83 f9 10             	cmp    $0x10,%ecx
 804aeba:	76 69                	jbe    804af25 <memset+0x7d>
 804aebc:	f7 c7 07 00 00 00    	test   $0x7,%edi
 804aec2:	74 4c                	je     804af10 <memset+0x68>
 804aec4:	88 07                	mov    %al,(%edi)
 804aec6:	47                   	inc    %edi
 804aec7:	49                   	dec    %ecx
 804aec8:	f7 c7 07 00 00 00    	test   $0x7,%edi
 804aece:	74 40                	je     804af10 <memset+0x68>
 804aed0:	88 07                	mov    %al,(%edi)
 804aed2:	47                   	inc    %edi
 804aed3:	49                   	dec    %ecx
 804aed4:	f7 c7 07 00 00 00    	test   $0x7,%edi
 804aeda:	74 34                	je     804af10 <memset+0x68>
 804aedc:	88 07                	mov    %al,(%edi)
 804aede:	47                   	inc    %edi
 804aedf:	49                   	dec    %ecx
 804aee0:	f7 c7 07 00 00 00    	test   $0x7,%edi
 804aee6:	74 28                	je     804af10 <memset+0x68>
 804aee8:	88 07                	mov    %al,(%edi)
 804aeea:	47                   	inc    %edi
 804aeeb:	49                   	dec    %ecx
 804aeec:	f7 c7 07 00 00 00    	test   $0x7,%edi
 804aef2:	74 1c                	je     804af10 <memset+0x68>
 804aef4:	88 07                	mov    %al,(%edi)
 804aef6:	47                   	inc    %edi
 804aef7:	49                   	dec    %ecx
 804aef8:	f7 c7 07 00 00 00    	test   $0x7,%edi
 804aefe:	74 10                	je     804af10 <memset+0x68>
 804af00:	88 07                	mov    %al,(%edi)
 804af02:	47                   	inc    %edi
 804af03:	49                   	dec    %ecx
 804af04:	f7 c7 07 00 00 00    	test   $0x7,%edi
 804af0a:	74 04                	je     804af10 <memset+0x68>
 804af0c:	88 07                	mov    %al,(%edi)
 804af0e:	47                   	inc    %edi
 804af0f:	49                   	dec    %ecx
 804af10:	88 c4                	mov    %al,%ah
 804af12:	89 c2                	mov    %eax,%edx
 804af14:	c1 e2 10             	shl    $0x10,%edx
 804af17:	09 d0                	or     %edx,%eax
 804af19:	89 ca                	mov    %ecx,%edx
 804af1b:	c1 e9 02             	shr    $0x2,%ecx
 804af1e:	83 e2 03             	and    $0x3,%edx
 804af21:	f3 ab                	rep stos %eax,%es:(%edi)
 804af23:	89 d1                	mov    %edx,%ecx
 804af25:	f3 aa                	rep stos %al,%es:(%edi)
 804af27:	8b 45 08             	mov    0x8(%ebp),%eax
 804af2a:	8d 65 fc             	lea    -0x4(%ebp),%esp
 804af2d:	5f                   	pop    %edi
 804af2e:	c9                   	leave  
 804af2f:	c3                   	ret    

0804af30 <__malloc_lock>:
 804af30:	55                   	push   %ebp
 804af31:	89 e5                	mov    %esp,%ebp
 804af33:	5d                   	pop    %ebp
 804af34:	c3                   	ret    
 804af35:	8d 74 26 00          	lea    0x0(%esi,%eiz,1),%esi
 804af39:	8d bc 27 00 00 00 00 	lea    0x0(%edi,%eiz,1),%edi

0804af40 <__malloc_unlock>:
 804af40:	55                   	push   %ebp
 804af41:	89 e5                	mov    %esp,%ebp
 804af43:	5d                   	pop    %ebp
 804af44:	c3                   	ret    
 804af45:	66 90                	xchg   %ax,%ax
 804af47:	66 90                	xchg   %ax,%ax
 804af49:	66 90                	xchg   %ax,%ax
 804af4b:	66 90                	xchg   %ax,%ax
 804af4d:	66 90                	xchg   %ax,%ax
 804af4f:	90                   	nop

0804af50 <_open_r>:
 804af50:	55                   	push   %ebp
 804af51:	89 e5                	mov    %esp,%ebp
 804af53:	83 ec 18             	sub    $0x18,%esp
 804af56:	8b 45 14             	mov    0x14(%ebp),%eax
 804af59:	c7 05 60 6e 08 08 00 	movl   $0x0,0x8086e60
 804af60:	00 00 00 
 804af63:	89 44 24 08          	mov    %eax,0x8(%esp)
 804af67:	8b 45 10             	mov    0x10(%ebp),%eax
 804af6a:	89 44 24 04          	mov    %eax,0x4(%esp)
 804af6e:	8b 45 0c             	mov    0xc(%ebp),%eax
 804af71:	89 04 24             	mov    %eax,(%esp)
 804af74:	e8 ef e1 ff ff       	call   8049168 <open>
 804af79:	83 f8 ff             	cmp    $0xffffffff,%eax
 804af7c:	74 02                	je     804af80 <_open_r+0x30>
 804af7e:	c9                   	leave  
 804af7f:	c3                   	ret    
 804af80:	8b 15 60 6e 08 08    	mov    0x8086e60,%edx
 804af86:	85 d2                	test   %edx,%edx
 804af88:	74 f4                	je     804af7e <_open_r+0x2e>
 804af8a:	8b 4d 08             	mov    0x8(%ebp),%ecx
 804af8d:	89 11                	mov    %edx,(%ecx)
 804af8f:	c9                   	leave  
 804af90:	c3                   	ret    
 804af91:	66 90                	xchg   %ax,%ax
 804af93:	66 90                	xchg   %ax,%ax
 804af95:	66 90                	xchg   %ax,%ax
 804af97:	66 90                	xchg   %ax,%ax
 804af99:	66 90                	xchg   %ax,%ax
 804af9b:	66 90                	xchg   %ax,%ax
 804af9d:	66 90                	xchg   %ax,%ax
 804af9f:	90                   	nop

0804afa0 <_printf_r>:
 804afa0:	55                   	push   %ebp
 804afa1:	89 e5                	mov    %esp,%ebp
 804afa3:	83 ec 18             	sub    $0x18,%esp
 804afa6:	8d 55 10             	lea    0x10(%ebp),%edx
 804afa9:	8b 45 08             	mov    0x8(%ebp),%eax
 804afac:	89 54 24 0c          	mov    %edx,0xc(%esp)
 804afb0:	8b 55 0c             	mov    0xc(%ebp),%edx
 804afb3:	89 54 24 08          	mov    %edx,0x8(%esp)
 804afb7:	8b 50 08             	mov    0x8(%eax),%edx
 804afba:	89 04 24             	mov    %eax,(%esp)
 804afbd:	89 54 24 04          	mov    %edx,0x4(%esp)
 804afc1:	e8 ea 04 00 00       	call   804b4b0 <_vfprintf_r>
 804afc6:	c9                   	leave  
 804afc7:	c3                   	ret    
 804afc8:	90                   	nop
 804afc9:	8d b4 26 00 00 00 00 	lea    0x0(%esi,%eiz,1),%esi

0804afd0 <printf>:
 804afd0:	55                   	push   %ebp
 804afd1:	89 e5                	mov    %esp,%ebp
 804afd3:	83 ec 18             	sub    $0x18,%esp
 804afd6:	e8 f5 f5 ff ff       	call   804a5d0 <__getreent>
 804afdb:	8d 55 0c             	lea    0xc(%ebp),%edx
 804afde:	89 54 24 0c          	mov    %edx,0xc(%esp)
 804afe2:	8b 55 08             	mov    0x8(%ebp),%edx
 804afe5:	89 54 24 08          	mov    %edx,0x8(%esp)
 804afe9:	8b 50 08             	mov    0x8(%eax),%edx
 804afec:	89 04 24             	mov    %eax,(%esp)
 804afef:	89 54 24 04          	mov    %edx,0x4(%esp)
 804aff3:	e8 b8 04 00 00       	call   804b4b0 <_vfprintf_r>
 804aff8:	c9                   	leave  
 804aff9:	c3                   	ret    
 804affa:	66 90                	xchg   %ax,%ax
 804affc:	66 90                	xchg   %ax,%ax
 804affe:	66 90                	xchg   %ax,%ax

0804b000 <cleanup_glue>:
 804b000:	55                   	push   %ebp
 804b001:	89 e5                	mov    %esp,%ebp
 804b003:	56                   	push   %esi
 804b004:	53                   	push   %ebx
 804b005:	83 ec 10             	sub    $0x10,%esp
 804b008:	8b 5d 0c             	mov    0xc(%ebp),%ebx
 804b00b:	8b 75 08             	mov    0x8(%ebp),%esi
 804b00e:	8b 03                	mov    (%ebx),%eax
 804b010:	85 c0                	test   %eax,%eax
 804b012:	74 0c                	je     804b020 <cleanup_glue+0x20>
 804b014:	89 44 24 04          	mov    %eax,0x4(%esp)
 804b018:	89 34 24             	mov    %esi,(%esp)
 804b01b:	e8 e0 ff ff ff       	call   804b000 <cleanup_glue>
 804b020:	89 5d 0c             	mov    %ebx,0xc(%ebp)
 804b023:	89 75 08             	mov    %esi,0x8(%ebp)
 804b026:	83 c4 10             	add    $0x10,%esp
 804b029:	5b                   	pop    %ebx
 804b02a:	5e                   	pop    %esi
 804b02b:	5d                   	pop    %ebp
 804b02c:	e9 ef ed ff ff       	jmp    8049e20 <_free_r>
 804b031:	eb 0d                	jmp    804b040 <_reclaim_reent>
 804b033:	90                   	nop
 804b034:	90                   	nop
 804b035:	90                   	nop
 804b036:	90                   	nop
 804b037:	90                   	nop
 804b038:	90                   	nop
 804b039:	90                   	nop
 804b03a:	90                   	nop
 804b03b:	90                   	nop
 804b03c:	90                   	nop
 804b03d:	90                   	nop
 804b03e:	90                   	nop
 804b03f:	90                   	nop

0804b040 <_reclaim_reent>:
 804b040:	55                   	push   %ebp
 804b041:	89 e5                	mov    %esp,%ebp
 804b043:	57                   	push   %edi
 804b044:	56                   	push   %esi
 804b045:	53                   	push   %ebx
 804b046:	83 ec 1c             	sub    $0x1c,%esp
 804b049:	8b 5d 08             	mov    0x8(%ebp),%ebx
 804b04c:	3b 1d a0 76 05 08    	cmp    0x80576a0,%ebx
 804b052:	0f 84 a6 00 00 00    	je     804b0fe <_reclaim_reent+0xbe>
 804b058:	8b 53 4c             	mov    0x4c(%ebx),%edx
 804b05b:	85 d2                	test   %edx,%edx
 804b05d:	74 46                	je     804b0a5 <_reclaim_reent+0x65>
 804b05f:	31 c0                	xor    %eax,%eax
 804b061:	31 f6                	xor    %esi,%esi
 804b063:	90                   	nop
 804b064:	8d 74 26 00          	lea    0x0(%esi,%eiz,1),%esi
 804b068:	8b 04 82             	mov    (%edx,%eax,4),%eax
 804b06b:	85 c0                	test   %eax,%eax
 804b06d:	75 0b                	jne    804b07a <_reclaim_reent+0x3a>
 804b06f:	eb 1e                	jmp    804b08f <_reclaim_reent+0x4f>
 804b071:	8d b4 26 00 00 00 00 	lea    0x0(%esi,%eiz,1),%esi
 804b078:	89 f8                	mov    %edi,%eax
 804b07a:	8b 38                	mov    (%eax),%edi
 804b07c:	89 44 24 04          	mov    %eax,0x4(%esp)
 804b080:	89 1c 24             	mov    %ebx,(%esp)
 804b083:	e8 98 ed ff ff       	call   8049e20 <_free_r>
 804b088:	85 ff                	test   %edi,%edi
 804b08a:	75 ec                	jne    804b078 <_reclaim_reent+0x38>
 804b08c:	8b 53 4c             	mov    0x4c(%ebx),%edx
 804b08f:	83 c6 01             	add    $0x1,%esi
 804b092:	83 fe 20             	cmp    $0x20,%esi
 804b095:	89 f0                	mov    %esi,%eax
 804b097:	75 cf                	jne    804b068 <_reclaim_reent+0x28>
 804b099:	89 54 24 04          	mov    %edx,0x4(%esp)
 804b09d:	89 1c 24             	mov    %ebx,(%esp)
 804b0a0:	e8 7b ed ff ff       	call   8049e20 <_free_r>
 804b0a5:	8b 43 40             	mov    0x40(%ebx),%eax
 804b0a8:	85 c0                	test   %eax,%eax
 804b0aa:	74 0c                	je     804b0b8 <_reclaim_reent+0x78>
 804b0ac:	89 44 24 04          	mov    %eax,0x4(%esp)
 804b0b0:	89 1c 24             	mov    %ebx,(%esp)
 804b0b3:	e8 68 ed ff ff       	call   8049e20 <_free_r>
 804b0b8:	8b 83 48 01 00 00    	mov    0x148(%ebx),%eax
 804b0be:	85 c0                	test   %eax,%eax
 804b0c0:	74 22                	je     804b0e4 <_reclaim_reent+0xa4>
 804b0c2:	8d b3 4c 01 00 00    	lea    0x14c(%ebx),%esi
 804b0c8:	39 f0                	cmp    %esi,%eax
 804b0ca:	75 06                	jne    804b0d2 <_reclaim_reent+0x92>
 804b0cc:	eb 16                	jmp    804b0e4 <_reclaim_reent+0xa4>
 804b0ce:	66 90                	xchg   %ax,%ax
 804b0d0:	89 f8                	mov    %edi,%eax
 804b0d2:	8b 38                	mov    (%eax),%edi
 804b0d4:	89 44 24 04          	mov    %eax,0x4(%esp)
 804b0d8:	89 1c 24             	mov    %ebx,(%esp)
 804b0db:	e8 40 ed ff ff       	call   8049e20 <_free_r>
 804b0e0:	39 fe                	cmp    %edi,%esi
 804b0e2:	75 ec                	jne    804b0d0 <_reclaim_reent+0x90>
 804b0e4:	8b 43 54             	mov    0x54(%ebx),%eax
 804b0e7:	85 c0                	test   %eax,%eax
 804b0e9:	74 0c                	je     804b0f7 <_reclaim_reent+0xb7>
 804b0eb:	89 44 24 04          	mov    %eax,0x4(%esp)
 804b0ef:	89 1c 24             	mov    %ebx,(%esp)
 804b0f2:	e8 29 ed ff ff       	call   8049e20 <_free_r>
 804b0f7:	8b 43 38             	mov    0x38(%ebx),%eax
 804b0fa:	85 c0                	test   %eax,%eax
 804b0fc:	75 08                	jne    804b106 <_reclaim_reent+0xc6>
 804b0fe:	83 c4 1c             	add    $0x1c,%esp
 804b101:	5b                   	pop    %ebx
 804b102:	5e                   	pop    %esi
 804b103:	5f                   	pop    %edi
 804b104:	5d                   	pop    %ebp
 804b105:	c3                   	ret    
 804b106:	89 1c 24             	mov    %ebx,(%esp)
 804b109:	ff 53 3c             	call   *0x3c(%ebx)
 804b10c:	8b 83 e0 02 00 00    	mov    0x2e0(%ebx),%eax
 804b112:	85 c0                	test   %eax,%eax
 804b114:	74 e8                	je     804b0fe <_reclaim_reent+0xbe>
 804b116:	89 1c 24             	mov    %ebx,(%esp)
 804b119:	89 44 24 04          	mov    %eax,0x4(%esp)
 804b11d:	e8 de fe ff ff       	call   804b000 <cleanup_glue>
 804b122:	83 c4 1c             	add    $0x1c,%esp
 804b125:	5b                   	pop    %ebx
 804b126:	5e                   	pop    %esi
 804b127:	5f                   	pop    %edi
 804b128:	5d                   	pop    %ebp
 804b129:	c3                   	ret    
 804b12a:	66 90                	xchg   %ax,%ax
 804b12c:	66 90                	xchg   %ax,%ax
 804b12e:	66 90                	xchg   %ax,%ax

0804b130 <lflush>:
 804b130:	55                   	push   %ebp
 804b131:	89 e5                	mov    %esp,%ebp
 804b133:	8b 55 08             	mov    0x8(%ebp),%edx
 804b136:	0f b7 42 0c          	movzwl 0xc(%edx),%eax
 804b13a:	83 e0 09             	and    $0x9,%eax
 804b13d:	66 83 f8 09          	cmp    $0x9,%ax
 804b141:	74 05                	je     804b148 <lflush+0x18>
 804b143:	31 c0                	xor    %eax,%eax
 804b145:	5d                   	pop    %ebp
 804b146:	c3                   	ret    
 804b147:	90                   	nop
 804b148:	5d                   	pop    %ebp
 804b149:	e9 d2 3b 00 00       	jmp    804ed20 <fflush>
 804b14e:	66 90                	xchg   %ax,%ax

0804b150 <__srefill_r>:
 804b150:	55                   	push   %ebp
 804b151:	89 e5                	mov    %esp,%ebp
 804b153:	57                   	push   %edi
 804b154:	56                   	push   %esi
 804b155:	53                   	push   %ebx
 804b156:	83 ec 1c             	sub    $0x1c,%esp
 804b159:	8b 75 08             	mov    0x8(%ebp),%esi
 804b15c:	8b 5d 0c             	mov    0xc(%ebp),%ebx
 804b15f:	85 f6                	test   %esi,%esi
 804b161:	74 0b                	je     804b16e <__srefill_r+0x1e>
 804b163:	8b 4e 38             	mov    0x38(%esi),%ecx
 804b166:	85 c9                	test   %ecx,%ecx
 804b168:	0f 84 ea 00 00 00    	je     804b258 <__srefill_r+0x108>
 804b16e:	0f b7 43 0c          	movzwl 0xc(%ebx),%eax
 804b172:	f6 c4 20             	test   $0x20,%ah
 804b175:	75 0e                	jne    804b185 <__srefill_r+0x35>
 804b177:	81 63 64 ff df ff ff 	andl   $0xffffdfff,0x64(%ebx)
 804b17e:	80 cc 20             	or     $0x20,%ah
 804b181:	66 89 43 0c          	mov    %ax,0xc(%ebx)
 804b185:	a8 20                	test   $0x20,%al
 804b187:	c7 43 04 00 00 00 00 	movl   $0x0,0x4(%ebx)
 804b18e:	0f 85 b2 00 00 00    	jne    804b246 <__srefill_r+0xf6>
 804b194:	a8 04                	test   $0x4,%al
 804b196:	0f 84 7c 00 00 00    	je     804b218 <__srefill_r+0xc8>
 804b19c:	8b 43 30             	mov    0x30(%ebx),%eax
 804b19f:	85 c0                	test   %eax,%eax
 804b1a1:	74 28                	je     804b1cb <__srefill_r+0x7b>
 804b1a3:	8d 53 40             	lea    0x40(%ebx),%edx
 804b1a6:	39 d0                	cmp    %edx,%eax
 804b1a8:	74 0c                	je     804b1b6 <__srefill_r+0x66>
 804b1aa:	89 44 24 04          	mov    %eax,0x4(%esp)
 804b1ae:	89 34 24             	mov    %esi,(%esp)
 804b1b1:	e8 6a ec ff ff       	call   8049e20 <_free_r>
 804b1b6:	8b 43 3c             	mov    0x3c(%ebx),%eax
 804b1b9:	c7 43 30 00 00 00 00 	movl   $0x0,0x30(%ebx)
 804b1c0:	85 c0                	test   %eax,%eax
 804b1c2:	89 43 04             	mov    %eax,0x4(%ebx)
 804b1c5:	0f 85 f5 00 00 00    	jne    804b2c0 <__srefill_r+0x170>
 804b1cb:	8b 53 10             	mov    0x10(%ebx),%edx
 804b1ce:	85 d2                	test   %edx,%edx
 804b1d0:	0f 84 2a 01 00 00    	je     804b300 <__srefill_r+0x1b0>
 804b1d6:	0f b7 7b 0c          	movzwl 0xc(%ebx),%edi
 804b1da:	66 f7 c7 03 00       	test   $0x3,%di
 804b1df:	0f 85 83 00 00 00    	jne    804b268 <__srefill_r+0x118>
 804b1e5:	8b 43 10             	mov    0x10(%ebx),%eax
 804b1e8:	8b 53 14             	mov    0x14(%ebx),%edx
 804b1eb:	89 03                	mov    %eax,(%ebx)
 804b1ed:	89 54 24 0c          	mov    %edx,0xc(%esp)
 804b1f1:	89 44 24 08          	mov    %eax,0x8(%esp)
 804b1f5:	8b 43 1c             	mov    0x1c(%ebx),%eax
 804b1f8:	89 34 24             	mov    %esi,(%esp)
 804b1fb:	89 44 24 04          	mov    %eax,0x4(%esp)
 804b1ff:	ff 53 20             	call   *0x20(%ebx)
 804b202:	89 c2                	mov    %eax,%edx
 804b204:	89 43 04             	mov    %eax,0x4(%ebx)
 804b207:	31 c0                	xor    %eax,%eax
 804b209:	83 fa 00             	cmp    $0x0,%edx
 804b20c:	7e 2a                	jle    804b238 <__srefill_r+0xe8>
 804b20e:	83 c4 1c             	add    $0x1c,%esp
 804b211:	5b                   	pop    %ebx
 804b212:	5e                   	pop    %esi
 804b213:	5f                   	pop    %edi
 804b214:	5d                   	pop    %ebp
 804b215:	c3                   	ret    
 804b216:	66 90                	xchg   %ax,%ax
 804b218:	a8 10                	test   $0x10,%al
 804b21a:	0f 84 f8 00 00 00    	je     804b318 <__srefill_r+0x1c8>
 804b220:	a8 08                	test   $0x8,%al
 804b222:	0f 85 a8 00 00 00    	jne    804b2d0 <__srefill_r+0x180>
 804b228:	83 c8 04             	or     $0x4,%eax
 804b22b:	66 89 43 0c          	mov    %ax,0xc(%ebx)
 804b22f:	eb 9a                	jmp    804b1cb <__srefill_r+0x7b>
 804b231:	8d b4 26 00 00 00 00 	lea    0x0(%esi,%eiz,1),%esi
 804b238:	74 6e                	je     804b2a8 <__srefill_r+0x158>
 804b23a:	66 83 4b 0c 40       	orw    $0x40,0xc(%ebx)
 804b23f:	c7 43 04 00 00 00 00 	movl   $0x0,0x4(%ebx)
 804b246:	83 c4 1c             	add    $0x1c,%esp
 804b249:	b8 ff ff ff ff       	mov    $0xffffffff,%eax
 804b24e:	5b                   	pop    %ebx
 804b24f:	5e                   	pop    %esi
 804b250:	5f                   	pop    %edi
 804b251:	5d                   	pop    %ebp
 804b252:	c3                   	ret    
 804b253:	90                   	nop
 804b254:	8d 74 26 00          	lea    0x0(%esi,%eiz,1),%esi
 804b258:	89 34 24             	mov    %esi,(%esp)
 804b25b:	e8 d0 3b 00 00       	call   804ee30 <__sinit>
 804b260:	e9 09 ff ff ff       	jmp    804b16e <__srefill_r+0x1e>
 804b265:	8d 76 00             	lea    0x0(%esi),%esi
 804b268:	b8 01 00 00 00       	mov    $0x1,%eax
 804b26d:	66 89 43 0c          	mov    %ax,0xc(%ebx)
 804b271:	a1 48 3a 05 08       	mov    0x8053a48,%eax
 804b276:	c7 44 24 04 30 b1 04 	movl   $0x804b130,0x4(%esp)
 804b27d:	08 
 804b27e:	89 04 24             	mov    %eax,(%esp)
 804b281:	e8 ba 3f 00 00       	call   804f240 <_fwalk>
 804b286:	66 89 7b 0c          	mov    %di,0xc(%ebx)
 804b28a:	83 e7 09             	and    $0x9,%edi
 804b28d:	66 83 ff 09          	cmp    $0x9,%di
 804b291:	0f 85 4e ff ff ff    	jne    804b1e5 <__srefill_r+0x95>
 804b297:	89 5c 24 04          	mov    %ebx,0x4(%esp)
 804b29b:	89 34 24             	mov    %esi,(%esp)
 804b29e:	e8 3d 38 00 00       	call   804eae0 <__sflush_r>
 804b2a3:	e9 3d ff ff ff       	jmp    804b1e5 <__srefill_r+0x95>
 804b2a8:	66 83 4b 0c 20       	orw    $0x20,0xc(%ebx)
 804b2ad:	83 c4 1c             	add    $0x1c,%esp
 804b2b0:	5b                   	pop    %ebx
 804b2b1:	b8 ff ff ff ff       	mov    $0xffffffff,%eax
 804b2b6:	5e                   	pop    %esi
 804b2b7:	5f                   	pop    %edi
 804b2b8:	5d                   	pop    %ebp
 804b2b9:	c3                   	ret    
 804b2ba:	8d b6 00 00 00 00    	lea    0x0(%esi),%esi
 804b2c0:	8b 43 38             	mov    0x38(%ebx),%eax
 804b2c3:	89 03                	mov    %eax,(%ebx)
 804b2c5:	83 c4 1c             	add    $0x1c,%esp
 804b2c8:	31 c0                	xor    %eax,%eax
 804b2ca:	5b                   	pop    %ebx
 804b2cb:	5e                   	pop    %esi
 804b2cc:	5f                   	pop    %edi
 804b2cd:	5d                   	pop    %ebp
 804b2ce:	c3                   	ret    
 804b2cf:	90                   	nop
 804b2d0:	89 5c 24 04          	mov    %ebx,0x4(%esp)
 804b2d4:	89 34 24             	mov    %esi,(%esp)
 804b2d7:	e8 e4 39 00 00       	call   804ecc0 <_fflush_r>
 804b2dc:	85 c0                	test   %eax,%eax
 804b2de:	0f 85 62 ff ff ff    	jne    804b246 <__srefill_r+0xf6>
 804b2e4:	0f b7 43 0c          	movzwl 0xc(%ebx),%eax
 804b2e8:	c7 43 08 00 00 00 00 	movl   $0x0,0x8(%ebx)
 804b2ef:	c7 43 18 00 00 00 00 	movl   $0x0,0x18(%ebx)
 804b2f6:	83 e0 f7             	and    $0xfffffff7,%eax
 804b2f9:	e9 2a ff ff ff       	jmp    804b228 <__srefill_r+0xd8>
 804b2fe:	66 90                	xchg   %ax,%ax
 804b300:	89 5c 24 04          	mov    %ebx,0x4(%esp)
 804b304:	89 34 24             	mov    %esi,(%esp)
 804b307:	e8 d4 f2 ff ff       	call   804a5e0 <__smakebuf_r>
 804b30c:	e9 c5 fe ff ff       	jmp    804b1d6 <__srefill_r+0x86>
 804b311:	8d b4 26 00 00 00 00 	lea    0x0(%esi,%eiz,1),%esi
 804b318:	83 c8 40             	or     $0x40,%eax
 804b31b:	c7 06 09 00 00 00    	movl   $0x9,(%esi)
 804b321:	66 89 43 0c          	mov    %ax,0xc(%ebx)
 804b325:	b8 ff ff ff ff       	mov    $0xffffffff,%eax
 804b32a:	e9 df fe ff ff       	jmp    804b20e <__srefill_r+0xbe>
 804b32f:	90                   	nop

0804b330 <_sbrk_r>:
 804b330:	55                   	push   %ebp
 804b331:	89 e5                	mov    %esp,%ebp
 804b333:	83 ec 18             	sub    $0x18,%esp
 804b336:	8b 45 0c             	mov    0xc(%ebp),%eax
 804b339:	c7 05 60 6e 08 08 00 	movl   $0x0,0x8086e60
 804b340:	00 00 00 
 804b343:	89 04 24             	mov    %eax,(%esp)
 804b346:	e8 a2 de ff ff       	call   80491ed <sbrk>
 804b34b:	83 f8 ff             	cmp    $0xffffffff,%eax
 804b34e:	74 08                	je     804b358 <_sbrk_r+0x28>
 804b350:	c9                   	leave  
 804b351:	c3                   	ret    
 804b352:	8d b6 00 00 00 00    	lea    0x0(%esi),%esi
 804b358:	8b 15 60 6e 08 08    	mov    0x8086e60,%edx
 804b35e:	85 d2                	test   %edx,%edx
 804b360:	74 ee                	je     804b350 <_sbrk_r+0x20>
 804b362:	8b 4d 08             	mov    0x8(%ebp),%ecx
 804b365:	89 11                	mov    %edx,(%ecx)
 804b367:	c9                   	leave  
 804b368:	c3                   	ret    
 804b369:	66 90                	xchg   %ax,%ax
 804b36b:	66 90                	xchg   %ax,%ax
 804b36d:	66 90                	xchg   %ax,%ax
 804b36f:	90                   	nop

0804b370 <__sread>:
 804b370:	55                   	push   %ebp
 804b371:	89 e5                	mov    %esp,%ebp
 804b373:	53                   	push   %ebx
 804b374:	83 ec 14             	sub    $0x14,%esp
 804b377:	8b 45 14             	mov    0x14(%ebp),%eax
 804b37a:	8b 5d 0c             	mov    0xc(%ebp),%ebx
 804b37d:	89 44 24 0c          	mov    %eax,0xc(%esp)
 804b381:	8b 45 10             	mov    0x10(%ebp),%eax
 804b384:	89 44 24 08          	mov    %eax,0x8(%esp)
 804b388:	0f bf 43 0e          	movswl 0xe(%ebx),%eax
 804b38c:	89 44 24 04          	mov    %eax,0x4(%esp)
 804b390:	8b 45 08             	mov    0x8(%ebp),%eax
 804b393:	89 04 24             	mov    %eax,(%esp)
 804b396:	e8 b5 4f 00 00       	call   8050350 <_read_r>
 804b39b:	85 c0                	test   %eax,%eax
 804b39d:	78 09                	js     804b3a8 <__sread+0x38>
 804b39f:	01 43 50             	add    %eax,0x50(%ebx)
 804b3a2:	83 c4 14             	add    $0x14,%esp
 804b3a5:	5b                   	pop    %ebx
 804b3a6:	5d                   	pop    %ebp
 804b3a7:	c3                   	ret    
 804b3a8:	66 81 63 0c ff ef    	andw   $0xefff,0xc(%ebx)
 804b3ae:	83 c4 14             	add    $0x14,%esp
 804b3b1:	5b                   	pop    %ebx
 804b3b2:	5d                   	pop    %ebp
 804b3b3:	c3                   	ret    
 804b3b4:	8d b6 00 00 00 00    	lea    0x0(%esi),%esi
 804b3ba:	8d bf 00 00 00 00    	lea    0x0(%edi),%edi

0804b3c0 <__seofread>:
 804b3c0:	55                   	push   %ebp
 804b3c1:	31 c0                	xor    %eax,%eax
 804b3c3:	89 e5                	mov    %esp,%ebp
 804b3c5:	5d                   	pop    %ebp
 804b3c6:	c3                   	ret    
 804b3c7:	89 f6                	mov    %esi,%esi
 804b3c9:	8d bc 27 00 00 00 00 	lea    0x0(%edi,%eiz,1),%edi

0804b3d0 <__swrite>:
 804b3d0:	55                   	push   %ebp
 804b3d1:	89 e5                	mov    %esp,%ebp
 804b3d3:	57                   	push   %edi
 804b3d4:	56                   	push   %esi
 804b3d5:	53                   	push   %ebx
 804b3d6:	83 ec 2c             	sub    $0x2c,%esp
 804b3d9:	8b 5d 0c             	mov    0xc(%ebp),%ebx
 804b3dc:	8b 75 08             	mov    0x8(%ebp),%esi
 804b3df:	8b 7d 10             	mov    0x10(%ebp),%edi
 804b3e2:	8b 55 14             	mov    0x14(%ebp),%edx
 804b3e5:	0f b7 43 0c          	movzwl 0xc(%ebx),%eax
 804b3e9:	f6 c4 01             	test   $0x1,%ah
 804b3ec:	74 2a                	je     804b418 <__swrite+0x48>
 804b3ee:	c7 44 24 0c 02 00 00 	movl   $0x2,0xc(%esp)
 804b3f5:	00 
 804b3f6:	c7 44 24 08 00 00 00 	movl   $0x0,0x8(%esp)
 804b3fd:	00 
 804b3fe:	0f bf 43 0e          	movswl 0xe(%ebx),%eax
 804b402:	89 34 24             	mov    %esi,(%esp)
 804b405:	89 55 e4             	mov    %edx,-0x1c(%ebp)
 804b408:	89 44 24 04          	mov    %eax,0x4(%esp)
 804b40c:	e8 6f 40 00 00       	call   804f480 <_lseek_r>
 804b411:	0f b7 43 0c          	movzwl 0xc(%ebx),%eax
 804b415:	8b 55 e4             	mov    -0x1c(%ebp),%edx
 804b418:	80 e4 ef             	and    $0xef,%ah
 804b41b:	66 89 43 0c          	mov    %ax,0xc(%ebx)
 804b41f:	89 7d 10             	mov    %edi,0x10(%ebp)
 804b422:	89 55 14             	mov    %edx,0x14(%ebp)
 804b425:	0f bf 43 0e          	movswl 0xe(%ebx),%eax
 804b429:	89 75 08             	mov    %esi,0x8(%ebp)
 804b42c:	89 45 0c             	mov    %eax,0xc(%ebp)
 804b42f:	83 c4 2c             	add    $0x2c,%esp
 804b432:	5b                   	pop    %ebx
 804b433:	5e                   	pop    %esi
 804b434:	5f                   	pop    %edi
 804b435:	5d                   	pop    %ebp
 804b436:	e9 f5 20 00 00       	jmp    804d530 <_write_r>
 804b43b:	90                   	nop
 804b43c:	8d 74 26 00          	lea    0x0(%esi,%eiz,1),%esi

0804b440 <__sseek>:
 804b440:	55                   	push   %ebp
 804b441:	89 e5                	mov    %esp,%ebp
 804b443:	53                   	push   %ebx
 804b444:	83 ec 14             	sub    $0x14,%esp
 804b447:	8b 45 14             	mov    0x14(%ebp),%eax
 804b44a:	8b 5d 0c             	mov    0xc(%ebp),%ebx
 804b44d:	89 44 24 0c          	mov    %eax,0xc(%esp)
 804b451:	8b 45 10             	mov    0x10(%ebp),%eax
 804b454:	89 44 24 08          	mov    %eax,0x8(%esp)
 804b458:	0f bf 43 0e          	movswl 0xe(%ebx),%eax
 804b45c:	89 44 24 04          	mov    %eax,0x4(%esp)
 804b460:	8b 45 08             	mov    0x8(%ebp),%eax
 804b463:	89 04 24             	mov    %eax,(%esp)
 804b466:	e8 15 40 00 00       	call   804f480 <_lseek_r>
 804b46b:	83 f8 ff             	cmp    $0xffffffff,%eax
 804b46e:	74 10                	je     804b480 <__sseek+0x40>
 804b470:	66 81 4b 0c 00 10    	orw    $0x1000,0xc(%ebx)
 804b476:	89 43 50             	mov    %eax,0x50(%ebx)
 804b479:	83 c4 14             	add    $0x14,%esp
 804b47c:	5b                   	pop    %ebx
 804b47d:	5d                   	pop    %ebp
 804b47e:	c3                   	ret    
 804b47f:	90                   	nop
 804b480:	66 81 63 0c ff ef    	andw   $0xefff,0xc(%ebx)
 804b486:	83 c4 14             	add    $0x14,%esp
 804b489:	5b                   	pop    %ebx
 804b48a:	5d                   	pop    %ebp
 804b48b:	c3                   	ret    
 804b48c:	8d 74 26 00          	lea    0x0(%esi,%eiz,1),%esi

0804b490 <__sclose>:
 804b490:	55                   	push   %ebp
 804b491:	89 e5                	mov    %esp,%ebp
 804b493:	8b 45 0c             	mov    0xc(%ebp),%eax
 804b496:	0f bf 40 0e          	movswl 0xe(%eax),%eax
 804b49a:	89 45 0c             	mov    %eax,0xc(%ebp)
 804b49d:	5d                   	pop    %ebp
 804b49e:	e9 0d 22 00 00       	jmp    804d6b0 <_close_r>
 804b4a3:	66 90                	xchg   %ax,%ax
 804b4a5:	66 90                	xchg   %ax,%ax
 804b4a7:	66 90                	xchg   %ax,%ax
 804b4a9:	66 90                	xchg   %ax,%ax
 804b4ab:	66 90                	xchg   %ax,%ax
 804b4ad:	66 90                	xchg   %ax,%ax
 804b4af:	90                   	nop

0804b4b0 <_vfprintf_r>:
 804b4b0:	55                   	push   %ebp
 804b4b1:	89 e5                	mov    %esp,%ebp
 804b4b3:	57                   	push   %edi
 804b4b4:	56                   	push   %esi
 804b4b5:	53                   	push   %ebx
 804b4b6:	81 ec 1c 01 00 00    	sub    $0x11c,%esp
 804b4bc:	8b 45 08             	mov    0x8(%ebp),%eax
 804b4bf:	89 04 24             	mov    %eax,(%esp)
 804b4c2:	e8 59 3f 00 00       	call   804f420 <_localeconv_r>
 804b4c7:	8b 00                	mov    (%eax),%eax
 804b4c9:	89 04 24             	mov    %eax,(%esp)
 804b4cc:	89 85 18 ff ff ff    	mov    %eax,-0xe8(%ebp)
 804b4d2:	e8 a9 4f 00 00       	call   8050480 <strlen>
 804b4d7:	8b 5d 08             	mov    0x8(%ebp),%ebx
 804b4da:	85 db                	test   %ebx,%ebx
 804b4dc:	89 85 0c ff ff ff    	mov    %eax,-0xf4(%ebp)
 804b4e2:	74 0e                	je     804b4f2 <_vfprintf_r+0x42>
 804b4e4:	8b 45 08             	mov    0x8(%ebp),%eax
 804b4e7:	8b 48 38             	mov    0x38(%eax),%ecx
 804b4ea:	85 c9                	test   %ecx,%ecx
 804b4ec:	0f 84 56 02 00 00    	je     804b748 <_vfprintf_r+0x298>
 804b4f2:	8b 45 0c             	mov    0xc(%ebp),%eax
 804b4f5:	0f b7 40 0c          	movzwl 0xc(%eax),%eax
 804b4f9:	f6 c4 20             	test   $0x20,%ah
 804b4fc:	75 11                	jne    804b50f <_vfprintf_r+0x5f>
 804b4fe:	8b 55 0c             	mov    0xc(%ebp),%edx
 804b501:	80 cc 20             	or     $0x20,%ah
 804b504:	81 62 64 ff df ff ff 	andl   $0xffffdfff,0x64(%edx)
 804b50b:	66 89 42 0c          	mov    %ax,0xc(%edx)
 804b50f:	a8 08                	test   $0x8,%al
 804b511:	0f 84 59 01 00 00    	je     804b670 <_vfprintf_r+0x1c0>
 804b517:	8b 55 0c             	mov    0xc(%ebp),%edx
 804b51a:	8b 52 10             	mov    0x10(%edx),%edx
 804b51d:	85 d2                	test   %edx,%edx
 804b51f:	0f 84 4b 01 00 00    	je     804b670 <_vfprintf_r+0x1c0>
 804b525:	83 e0 1a             	and    $0x1a,%eax
 804b528:	66 83 f8 0a          	cmp    $0xa,%ax
 804b52c:	0f 84 68 01 00 00    	je     804b69a <_vfprintf_r+0x1ea>
 804b532:	8d 45 a8             	lea    -0x58(%ebp),%eax
 804b535:	8d 55 a7             	lea    -0x59(%ebp),%edx
 804b538:	89 c7                	mov    %eax,%edi
 804b53a:	89 85 74 ff ff ff    	mov    %eax,-0x8c(%ebp)
 804b540:	d9 ee                	fldz   
 804b542:	29 d0                	sub    %edx,%eax
 804b544:	c7 85 7c ff ff ff 00 	movl   $0x0,-0x84(%ebp)
 804b54b:	00 00 00 
 804b54e:	dd 9d 10 ff ff ff    	fstpl  -0xf0(%ebp)
 804b554:	c7 85 78 ff ff ff 00 	movl   $0x0,-0x88(%ebp)
 804b55b:	00 00 00 
 804b55e:	c7 85 1c ff ff ff 00 	movl   $0x0,-0xe4(%ebp)
 804b565:	00 00 00 
 804b568:	c7 85 08 ff ff ff 00 	movl   $0x0,-0xf8(%ebp)
 804b56f:	00 00 00 
 804b572:	c7 85 04 ff ff ff 00 	movl   $0x0,-0xfc(%ebp)
 804b579:	00 00 00 
 804b57c:	c7 85 28 ff ff ff 00 	movl   $0x0,-0xd8(%ebp)
 804b583:	00 00 00 
 804b586:	89 85 00 ff ff ff    	mov    %eax,-0x100(%ebp)
 804b58c:	8b 45 10             	mov    0x10(%ebp),%eax
 804b58f:	8b 5d 10             	mov    0x10(%ebp),%ebx
 804b592:	0f b6 00             	movzbl (%eax),%eax
 804b595:	3c 25                	cmp    $0x25,%al
 804b597:	74 4c                	je     804b5e5 <_vfprintf_r+0x135>
 804b599:	84 c0                	test   %al,%al
 804b59b:	75 07                	jne    804b5a4 <_vfprintf_r+0xf4>
 804b59d:	eb 46                	jmp    804b5e5 <_vfprintf_r+0x135>
 804b59f:	90                   	nop
 804b5a0:	84 c0                	test   %al,%al
 804b5a2:	74 0a                	je     804b5ae <_vfprintf_r+0xfe>
 804b5a4:	83 c3 01             	add    $0x1,%ebx
 804b5a7:	0f b6 03             	movzbl (%ebx),%eax
 804b5aa:	3c 25                	cmp    $0x25,%al
 804b5ac:	75 f2                	jne    804b5a0 <_vfprintf_r+0xf0>
 804b5ae:	89 de                	mov    %ebx,%esi
 804b5b0:	2b 75 10             	sub    0x10(%ebp),%esi
 804b5b3:	74 30                	je     804b5e5 <_vfprintf_r+0x135>
 804b5b5:	8b 45 10             	mov    0x10(%ebp),%eax
 804b5b8:	83 c7 08             	add    $0x8,%edi
 804b5bb:	89 77 fc             	mov    %esi,-0x4(%edi)
 804b5be:	01 b5 7c ff ff ff    	add    %esi,-0x84(%ebp)
 804b5c4:	89 47 f8             	mov    %eax,-0x8(%edi)
 804b5c7:	8b 85 78 ff ff ff    	mov    -0x88(%ebp),%eax
 804b5cd:	83 c0 01             	add    $0x1,%eax
 804b5d0:	83 f8 07             	cmp    $0x7,%eax
 804b5d3:	89 85 78 ff ff ff    	mov    %eax,-0x88(%ebp)
 804b5d9:	0f 8f f9 00 00 00    	jg     804b6d8 <_vfprintf_r+0x228>
 804b5df:	01 b5 28 ff ff ff    	add    %esi,-0xd8(%ebp)
 804b5e5:	80 3b 00             	cmpb   $0x0,(%ebx)
 804b5e8:	0f 84 12 01 00 00    	je     804b700 <_vfprintf_r+0x250>
 804b5ee:	8d 43 01             	lea    0x1(%ebx),%eax
 804b5f1:	be 20 00 00 00       	mov    $0x20,%esi
 804b5f6:	c6 85 59 ff ff ff 00 	movb   $0x0,-0xa7(%ebp)
 804b5fd:	31 db                	xor    %ebx,%ebx
 804b5ff:	c7 85 44 ff ff ff ff 	movl   $0xffffffff,-0xbc(%ebp)
 804b606:	ff ff ff 
 804b609:	c7 85 40 ff ff ff 00 	movl   $0x0,-0xc0(%ebp)
 804b610:	00 00 00 
 804b613:	c7 85 4c ff ff ff 00 	movl   $0x0,-0xb4(%ebp)
 804b61a:	00 00 00 
 804b61d:	8d 48 01             	lea    0x1(%eax),%ecx
 804b620:	0f be 00             	movsbl (%eax),%eax
 804b623:	8d 50 e0             	lea    -0x20(%eax),%edx
 804b626:	83 fa 58             	cmp    $0x58,%edx
 804b629:	0f 87 f2 07 00 00    	ja     804be21 <_vfprintf_r+0x971>
 804b62f:	ff 24 95 8c 3a 05 08 	jmp    *0x8053a8c(,%edx,4)
 804b636:	66 90                	xchg   %ax,%ax
 804b638:	83 8d 4c ff ff ff 10 	orl    $0x10,-0xb4(%ebp)
 804b63f:	89 c8                	mov    %ecx,%eax
 804b641:	eb da                	jmp    804b61d <_vfprintf_r+0x16d>
 804b643:	8b 45 14             	mov    0x14(%ebp),%eax
 804b646:	8b 55 14             	mov    0x14(%ebp),%edx
 804b649:	8b 00                	mov    (%eax),%eax
 804b64b:	83 c2 04             	add    $0x4,%edx
 804b64e:	89 55 14             	mov    %edx,0x14(%ebp)
 804b651:	85 c0                	test   %eax,%eax
 804b653:	89 85 40 ff ff ff    	mov    %eax,-0xc0(%ebp)
 804b659:	79 e4                	jns    804b63f <_vfprintf_r+0x18f>
 804b65b:	f7 9d 40 ff ff ff    	negl   -0xc0(%ebp)
 804b661:	83 8d 4c ff ff ff 04 	orl    $0x4,-0xb4(%ebp)
 804b668:	89 c8                	mov    %ecx,%eax
 804b66a:	eb b1                	jmp    804b61d <_vfprintf_r+0x16d>
 804b66c:	8d 74 26 00          	lea    0x0(%esi,%eiz,1),%esi
 804b670:	8b 45 0c             	mov    0xc(%ebp),%eax
 804b673:	89 44 24 04          	mov    %eax,0x4(%esp)
 804b677:	8b 45 08             	mov    0x8(%ebp),%eax
 804b67a:	89 04 24             	mov    %eax,(%esp)
 804b67d:	e8 fe 1e 00 00       	call   804d580 <__swsetup_r>
 804b682:	85 c0                	test   %eax,%eax
 804b684:	75 42                	jne    804b6c8 <_vfprintf_r+0x218>
 804b686:	8b 45 0c             	mov    0xc(%ebp),%eax
 804b689:	0f b7 40 0c          	movzwl 0xc(%eax),%eax
 804b68d:	83 e0 1a             	and    $0x1a,%eax
 804b690:	66 83 f8 0a          	cmp    $0xa,%ax
 804b694:	0f 85 98 fe ff ff    	jne    804b532 <_vfprintf_r+0x82>
 804b69a:	8b 45 0c             	mov    0xc(%ebp),%eax
 804b69d:	66 83 78 0e 00       	cmpw   $0x0,0xe(%eax)
 804b6a2:	0f 88 8a fe ff ff    	js     804b532 <_vfprintf_r+0x82>
 804b6a8:	8b 45 14             	mov    0x14(%ebp),%eax
 804b6ab:	8b 4d 10             	mov    0x10(%ebp),%ecx
 804b6ae:	8b 55 0c             	mov    0xc(%ebp),%edx
 804b6b1:	89 04 24             	mov    %eax,(%esp)
 804b6b4:	8b 45 08             	mov    0x8(%ebp),%eax
 804b6b7:	e8 94 1d 00 00       	call   804d450 <__sbprintf>
 804b6bc:	81 c4 1c 01 00 00    	add    $0x11c,%esp
 804b6c2:	5b                   	pop    %ebx
 804b6c3:	5e                   	pop    %esi
 804b6c4:	5f                   	pop    %edi
 804b6c5:	5d                   	pop    %ebp
 804b6c6:	c3                   	ret    
 804b6c7:	90                   	nop
 804b6c8:	81 c4 1c 01 00 00    	add    $0x11c,%esp
 804b6ce:	b8 ff ff ff ff       	mov    $0xffffffff,%eax
 804b6d3:	5b                   	pop    %ebx
 804b6d4:	5e                   	pop    %esi
 804b6d5:	5f                   	pop    %edi
 804b6d6:	5d                   	pop    %ebp
 804b6d7:	c3                   	ret    
 804b6d8:	8d 85 74 ff ff ff    	lea    -0x8c(%ebp),%eax
 804b6de:	89 44 24 08          	mov    %eax,0x8(%esp)
 804b6e2:	8b 45 0c             	mov    0xc(%ebp),%eax
 804b6e5:	89 44 24 04          	mov    %eax,0x4(%esp)
 804b6e9:	8b 45 08             	mov    0x8(%ebp),%eax
 804b6ec:	89 04 24             	mov    %eax,(%esp)
 804b6ef:	e8 ec 4e 00 00       	call   80505e0 <__sprint_r>
 804b6f4:	85 c0                	test   %eax,%eax
 804b6f6:	75 30                	jne    804b728 <_vfprintf_r+0x278>
 804b6f8:	8d 7d a8             	lea    -0x58(%ebp),%edi
 804b6fb:	e9 df fe ff ff       	jmp    804b5df <_vfprintf_r+0x12f>
 804b700:	8b 85 7c ff ff ff    	mov    -0x84(%ebp),%eax
 804b706:	85 c0                	test   %eax,%eax
 804b708:	74 1e                	je     804b728 <_vfprintf_r+0x278>
 804b70a:	8d 85 74 ff ff ff    	lea    -0x8c(%ebp),%eax
 804b710:	89 44 24 08          	mov    %eax,0x8(%esp)
 804b714:	8b 45 0c             	mov    0xc(%ebp),%eax
 804b717:	89 44 24 04          	mov    %eax,0x4(%esp)
 804b71b:	8b 45 08             	mov    0x8(%ebp),%eax
 804b71e:	89 04 24             	mov    %eax,(%esp)
 804b721:	e8 ba 4e 00 00       	call   80505e0 <__sprint_r>
 804b726:	66 90                	xchg   %ax,%ax
 804b728:	8b 45 0c             	mov    0xc(%ebp),%eax
 804b72b:	f6 40 0c 40          	testb  $0x40,0xc(%eax)
 804b72f:	75 97                	jne    804b6c8 <_vfprintf_r+0x218>
 804b731:	8b 85 28 ff ff ff    	mov    -0xd8(%ebp),%eax
 804b737:	81 c4 1c 01 00 00    	add    $0x11c,%esp
 804b73d:	5b                   	pop    %ebx
 804b73e:	5e                   	pop    %esi
 804b73f:	5f                   	pop    %edi
 804b740:	5d                   	pop    %ebp
 804b741:	c3                   	ret    
 804b742:	8d b6 00 00 00 00    	lea    0x0(%esi),%esi
 804b748:	89 04 24             	mov    %eax,(%esp)
 804b74b:	e8 e0 36 00 00       	call   804ee30 <__sinit>
 804b750:	e9 9d fd ff ff       	jmp    804b4f2 <_vfprintf_r+0x42>
 804b755:	bb 2b 00 00 00       	mov    $0x2b,%ebx
 804b75a:	89 c8                	mov    %ecx,%eax
 804b75c:	e9 bc fe ff ff       	jmp    804b61d <_vfprintf_r+0x16d>
 804b761:	89 85 24 ff ff ff    	mov    %eax,-0xdc(%ebp)
 804b767:	8b 45 14             	mov    0x14(%ebp),%eax
 804b76a:	89 4d 10             	mov    %ecx,0x10(%ebp)
 804b76d:	c6 85 59 ff ff ff 00 	movb   $0x0,-0xa7(%ebp)
 804b774:	8d 70 04             	lea    0x4(%eax),%esi
 804b777:	8b 00                	mov    (%eax),%eax
 804b779:	85 c0                	test   %eax,%eax
 804b77b:	89 85 2c ff ff ff    	mov    %eax,-0xd4(%ebp)
 804b781:	0f 84 0a 18 00 00    	je     804cf91 <_vfprintf_r+0x1ae1>
 804b787:	8b 85 44 ff ff ff    	mov    -0xbc(%ebp),%eax
 804b78d:	85 c0                	test   %eax,%eax
 804b78f:	0f 88 41 17 00 00    	js     804ced6 <_vfprintf_r+0x1a26>
 804b795:	89 44 24 08          	mov    %eax,0x8(%esp)
 804b799:	8b 85 2c ff ff ff    	mov    -0xd4(%ebp),%eax
 804b79f:	c7 44 24 04 00 00 00 	movl   $0x0,0x4(%esp)
 804b7a6:	00 
 804b7a7:	89 04 24             	mov    %eax,(%esp)
 804b7aa:	e8 21 3d 00 00       	call   804f4d0 <memchr>
 804b7af:	85 c0                	test   %eax,%eax
 804b7b1:	0f 84 2b 19 00 00    	je     804d0e2 <_vfprintf_r+0x1c32>
 804b7b7:	8b 95 44 ff ff ff    	mov    -0xbc(%ebp),%edx
 804b7bd:	2b 85 2c ff ff ff    	sub    -0xd4(%ebp),%eax
 804b7c3:	39 d0                	cmp    %edx,%eax
 804b7c5:	0f 4f c2             	cmovg  %edx,%eax
 804b7c8:	89 c2                	mov    %eax,%edx
 804b7ca:	0f b6 9d 59 ff ff ff 	movzbl -0xa7(%ebp),%ebx
 804b7d1:	89 85 38 ff ff ff    	mov    %eax,-0xc8(%ebp)
 804b7d7:	31 c0                	xor    %eax,%eax
 804b7d9:	85 d2                	test   %edx,%edx
 804b7db:	0f 49 c2             	cmovns %edx,%eax
 804b7de:	89 85 48 ff ff ff    	mov    %eax,-0xb8(%ebp)
 804b7e4:	89 75 14             	mov    %esi,0x14(%ebp)
 804b7e7:	c7 85 44 ff ff ff 00 	movl   $0x0,-0xbc(%ebp)
 804b7ee:	00 00 00 
 804b7f1:	c7 85 20 ff ff ff 00 	movl   $0x0,-0xe0(%ebp)
 804b7f8:	00 00 00 
 804b7fb:	90                   	nop
 804b7fc:	8d 74 26 00          	lea    0x0(%esi,%eiz,1),%esi
 804b800:	84 db                	test   %bl,%bl
 804b802:	74 07                	je     804b80b <_vfprintf_r+0x35b>
 804b804:	83 85 48 ff ff ff 01 	addl   $0x1,-0xb8(%ebp)
 804b80b:	8b 8d 48 ff ff ff    	mov    -0xb8(%ebp),%ecx
 804b811:	8b b5 4c ff ff ff    	mov    -0xb4(%ebp),%esi
 804b817:	89 c8                	mov    %ecx,%eax
 804b819:	89 f2                	mov    %esi,%edx
 804b81b:	83 c0 02             	add    $0x2,%eax
 804b81e:	83 e2 02             	and    $0x2,%edx
 804b821:	89 95 34 ff ff ff    	mov    %edx,-0xcc(%ebp)
 804b827:	89 f2                	mov    %esi,%edx
 804b829:	0f 44 c1             	cmove  %ecx,%eax
 804b82c:	81 e2 84 00 00 00    	and    $0x84,%edx
 804b832:	89 85 48 ff ff ff    	mov    %eax,-0xb8(%ebp)
 804b838:	89 95 30 ff ff ff    	mov    %edx,-0xd0(%ebp)
 804b83e:	0f 85 1c 06 00 00    	jne    804be60 <_vfprintf_r+0x9b0>
 804b844:	8b b5 40 ff ff ff    	mov    -0xc0(%ebp),%esi
 804b84a:	2b b5 48 ff ff ff    	sub    -0xb8(%ebp),%esi
 804b850:	85 f6                	test   %esi,%esi
 804b852:	0f 8e 08 06 00 00    	jle    804be60 <_vfprintf_r+0x9b0>
 804b858:	83 fe 10             	cmp    $0x10,%esi
 804b85b:	8b 8d 7c ff ff ff    	mov    -0x84(%ebp),%ecx
 804b861:	8b 85 78 ff ff ff    	mov    -0x88(%ebp),%eax
 804b867:	8d 9d 74 ff ff ff    	lea    -0x8c(%ebp),%ebx
 804b86d:	7f 11                	jg     804b880 <_vfprintf_r+0x3d0>
 804b86f:	eb 6b                	jmp    804b8dc <_vfprintf_r+0x42c>
 804b871:	8d b4 26 00 00 00 00 	lea    0x0(%esi,%eiz,1),%esi
 804b878:	83 ee 10             	sub    $0x10,%esi
 804b87b:	83 fe 10             	cmp    $0x10,%esi
 804b87e:	7e 5c                	jle    804b8dc <_vfprintf_r+0x42c>
 804b880:	83 c0 01             	add    $0x1,%eax
 804b883:	83 c1 10             	add    $0x10,%ecx
 804b886:	c7 07 00 3c 05 08    	movl   $0x8053c00,(%edi)
 804b88c:	83 c7 08             	add    $0x8,%edi
 804b88f:	c7 47 fc 10 00 00 00 	movl   $0x10,-0x4(%edi)
 804b896:	83 f8 07             	cmp    $0x7,%eax
 804b899:	89 8d 7c ff ff ff    	mov    %ecx,-0x84(%ebp)
 804b89f:	89 85 78 ff ff ff    	mov    %eax,-0x88(%ebp)
 804b8a5:	7e d1                	jle    804b878 <_vfprintf_r+0x3c8>
 804b8a7:	8b 45 0c             	mov    0xc(%ebp),%eax
 804b8aa:	89 5c 24 08          	mov    %ebx,0x8(%esp)
 804b8ae:	89 44 24 04          	mov    %eax,0x4(%esp)
 804b8b2:	8b 45 08             	mov    0x8(%ebp),%eax
 804b8b5:	89 04 24             	mov    %eax,(%esp)
 804b8b8:	e8 23 4d 00 00       	call   80505e0 <__sprint_r>
 804b8bd:	85 c0                	test   %eax,%eax
 804b8bf:	0f 85 63 fe ff ff    	jne    804b728 <_vfprintf_r+0x278>
 804b8c5:	83 ee 10             	sub    $0x10,%esi
 804b8c8:	8b 8d 7c ff ff ff    	mov    -0x84(%ebp),%ecx
 804b8ce:	83 fe 10             	cmp    $0x10,%esi
 804b8d1:	8b 85 78 ff ff ff    	mov    -0x88(%ebp),%eax
 804b8d7:	8d 7d a8             	lea    -0x58(%ebp),%edi
 804b8da:	7f a4                	jg     804b880 <_vfprintf_r+0x3d0>
 804b8dc:	83 c0 01             	add    $0x1,%eax
 804b8df:	01 f1                	add    %esi,%ecx
 804b8e1:	83 f8 07             	cmp    $0x7,%eax
 804b8e4:	c7 07 00 3c 05 08    	movl   $0x8053c00,(%edi)
 804b8ea:	89 77 04             	mov    %esi,0x4(%edi)
 804b8ed:	89 8d 7c ff ff ff    	mov    %ecx,-0x84(%ebp)
 804b8f3:	89 85 78 ff ff ff    	mov    %eax,-0x88(%ebp)
 804b8f9:	0f 8f 16 0e 00 00    	jg     804c715 <_vfprintf_r+0x1265>
 804b8ff:	83 c7 08             	add    $0x8,%edi
 804b902:	0f b6 9d 59 ff ff ff 	movzbl -0xa7(%ebp),%ebx
 804b909:	e9 58 05 00 00       	jmp    804be66 <_vfprintf_r+0x9b6>
 804b90e:	f6 85 4c ff ff ff 10 	testb  $0x10,-0xb4(%ebp)
 804b915:	89 85 24 ff ff ff    	mov    %eax,-0xdc(%ebp)
 804b91b:	8b 45 14             	mov    0x14(%ebp),%eax
 804b91e:	89 4d 10             	mov    %ecx,0x10(%ebp)
 804b921:	0f 85 15 02 00 00    	jne    804bb3c <_vfprintf_r+0x68c>
 804b927:	f6 85 4c ff ff ff 40 	testb  $0x40,-0xb4(%ebp)
 804b92e:	0f 84 08 02 00 00    	je     804bb3c <_vfprintf_r+0x68c>
 804b934:	0f b7 08             	movzwl (%eax),%ecx
 804b937:	83 c0 04             	add    $0x4,%eax
 804b93a:	89 45 14             	mov    %eax,0x14(%ebp)
 804b93d:	b8 01 00 00 00       	mov    $0x1,%eax
 804b942:	8d b6 00 00 00 00    	lea    0x0(%esi),%esi
 804b948:	c6 85 59 ff ff ff 00 	movb   $0x0,-0xa7(%ebp)
 804b94f:	31 db                	xor    %ebx,%ebx
 804b951:	8b b5 4c ff ff ff    	mov    -0xb4(%ebp),%esi
 804b957:	89 f2                	mov    %esi,%edx
 804b959:	80 e2 7f             	and    $0x7f,%dl
 804b95c:	83 bd 44 ff ff ff 00 	cmpl   $0x0,-0xbc(%ebp)
 804b963:	0f 48 d6             	cmovs  %esi,%edx
 804b966:	89 95 4c ff ff ff    	mov    %edx,-0xb4(%ebp)
 804b96c:	8b 95 44 ff ff ff    	mov    -0xbc(%ebp),%edx
 804b972:	85 d2                	test   %edx,%edx
 804b974:	75 08                	jne    804b97e <_vfprintf_r+0x4ce>
 804b976:	85 c9                	test   %ecx,%ecx
 804b978:	0f 84 ea 08 00 00    	je     804c268 <_vfprintf_r+0xdb8>
 804b97e:	3c 01                	cmp    $0x1,%al
 804b980:	0f 84 6a 0d 00 00    	je     804c6f0 <_vfprintf_r+0x1240>
 804b986:	3c 02                	cmp    $0x2,%al
 804b988:	8d 45 a8             	lea    -0x58(%ebp),%eax
 804b98b:	0f 85 bf 0b 00 00    	jne    804c550 <_vfprintf_r+0x10a0>
 804b991:	8b b5 08 ff ff ff    	mov    -0xf8(%ebp),%esi
 804b997:	90                   	nop
 804b998:	89 ca                	mov    %ecx,%edx
 804b99a:	83 e8 01             	sub    $0x1,%eax
 804b99d:	83 e2 0f             	and    $0xf,%edx
 804b9a0:	0f b6 14 16          	movzbl (%esi,%edx,1),%edx
 804b9a4:	c1 e9 04             	shr    $0x4,%ecx
 804b9a7:	85 c9                	test   %ecx,%ecx
 804b9a9:	88 10                	mov    %dl,(%eax)
 804b9ab:	75 eb                	jne    804b998 <_vfprintf_r+0x4e8>
 804b9ad:	8d 55 a8             	lea    -0x58(%ebp),%edx
 804b9b0:	29 c2                	sub    %eax,%edx
 804b9b2:	89 85 2c ff ff ff    	mov    %eax,-0xd4(%ebp)
 804b9b8:	89 95 38 ff ff ff    	mov    %edx,-0xc8(%ebp)
 804b9be:	66 90                	xchg   %ax,%ax
 804b9c0:	8b 85 44 ff ff ff    	mov    -0xbc(%ebp),%eax
 804b9c6:	8b 95 38 ff ff ff    	mov    -0xc8(%ebp),%edx
 804b9cc:	c7 85 20 ff ff ff 00 	movl   $0x0,-0xe0(%ebp)
 804b9d3:	00 00 00 
 804b9d6:	39 c2                	cmp    %eax,%edx
 804b9d8:	0f 4d c2             	cmovge %edx,%eax
 804b9db:	89 85 48 ff ff ff    	mov    %eax,-0xb8(%ebp)
 804b9e1:	e9 1a fe ff ff       	jmp    804b800 <_vfprintf_r+0x350>
 804b9e6:	81 8d 4c ff ff ff 80 	orl    $0x80,-0xb4(%ebp)
 804b9ed:	00 00 00 
 804b9f0:	89 c8                	mov    %ecx,%eax
 804b9f2:	e9 26 fc ff ff       	jmp    804b61d <_vfprintf_r+0x16d>
 804b9f7:	89 bd 48 ff ff ff    	mov    %edi,-0xb8(%ebp)
 804b9fd:	8d 50 d0             	lea    -0x30(%eax),%edx
 804ba00:	31 ff                	xor    %edi,%edi
 804ba02:	c7 85 40 ff ff ff 00 	movl   $0x0,-0xc0(%ebp)
 804ba09:	00 00 00 
 804ba0c:	8d 74 26 00          	lea    0x0(%esi,%eiz,1),%esi
 804ba10:	8d 04 bf             	lea    (%edi,%edi,4),%eax
 804ba13:	83 c1 01             	add    $0x1,%ecx
 804ba16:	8d 3c 42             	lea    (%edx,%eax,2),%edi
 804ba19:	0f be 41 ff          	movsbl -0x1(%ecx),%eax
 804ba1d:	8d 50 d0             	lea    -0x30(%eax),%edx
 804ba20:	83 fa 09             	cmp    $0x9,%edx
 804ba23:	76 eb                	jbe    804ba10 <_vfprintf_r+0x560>
 804ba25:	89 bd 40 ff ff ff    	mov    %edi,-0xc0(%ebp)
 804ba2b:	8b bd 48 ff ff ff    	mov    -0xb8(%ebp),%edi
 804ba31:	e9 ed fb ff ff       	jmp    804b623 <_vfprintf_r+0x173>
 804ba36:	8d 41 01             	lea    0x1(%ecx),%eax
 804ba39:	89 85 48 ff ff ff    	mov    %eax,-0xb8(%ebp)
 804ba3f:	0f be 01             	movsbl (%ecx),%eax
 804ba42:	83 f8 2a             	cmp    $0x2a,%eax
 804ba45:	0f 84 1e 19 00 00    	je     804d369 <_vfprintf_r+0x1eb9>
 804ba4b:	8d 50 d0             	lea    -0x30(%eax),%edx
 804ba4e:	31 c9                	xor    %ecx,%ecx
 804ba50:	83 fa 09             	cmp    $0x9,%edx
 804ba53:	0f 87 8d 17 00 00    	ja     804d1e6 <_vfprintf_r+0x1d36>
 804ba59:	89 bd 44 ff ff ff    	mov    %edi,-0xbc(%ebp)
 804ba5f:	8b bd 48 ff ff ff    	mov    -0xb8(%ebp),%edi
 804ba65:	8d 76 00             	lea    0x0(%esi),%esi
 804ba68:	8d 04 89             	lea    (%ecx,%ecx,4),%eax
 804ba6b:	83 c7 01             	add    $0x1,%edi
 804ba6e:	8d 0c 42             	lea    (%edx,%eax,2),%ecx
 804ba71:	0f be 47 ff          	movsbl -0x1(%edi),%eax
 804ba75:	8d 50 d0             	lea    -0x30(%eax),%edx
 804ba78:	83 fa 09             	cmp    $0x9,%edx
 804ba7b:	76 eb                	jbe    804ba68 <_vfprintf_r+0x5b8>
 804ba7d:	85 c9                	test   %ecx,%ecx
 804ba7f:	89 ca                	mov    %ecx,%edx
 804ba81:	b9 ff ff ff ff       	mov    $0xffffffff,%ecx
 804ba86:	0f 48 d1             	cmovs  %ecx,%edx
 804ba89:	89 bd 48 ff ff ff    	mov    %edi,-0xb8(%ebp)
 804ba8f:	8b bd 44 ff ff ff    	mov    -0xbc(%ebp),%edi
 804ba95:	8b 8d 48 ff ff ff    	mov    -0xb8(%ebp),%ecx
 804ba9b:	89 95 44 ff ff ff    	mov    %edx,-0xbc(%ebp)
 804baa1:	e9 7d fb ff ff       	jmp    804b623 <_vfprintf_r+0x173>
 804baa6:	8b 45 14             	mov    0x14(%ebp),%eax
 804baa9:	89 4d 10             	mov    %ecx,0x10(%ebp)
 804baac:	83 8d 4c ff ff ff 02 	orl    $0x2,-0xb4(%ebp)
 804bab3:	8b 08                	mov    (%eax),%ecx
 804bab5:	83 c0 04             	add    $0x4,%eax
 804bab8:	89 45 14             	mov    %eax,0x14(%ebp)
 804babb:	b8 02 00 00 00       	mov    $0x2,%eax
 804bac0:	c6 85 5a ff ff ff 30 	movb   $0x30,-0xa6(%ebp)
 804bac7:	c6 85 5b ff ff ff 78 	movb   $0x78,-0xa5(%ebp)
 804bace:	c7 85 08 ff ff ff 6f 	movl   $0x8053a6f,-0xf8(%ebp)
 804bad5:	3a 05 08 
 804bad8:	c7 85 24 ff ff ff 78 	movl   $0x78,-0xdc(%ebp)
 804badf:	00 00 00 
 804bae2:	e9 61 fe ff ff       	jmp    804b948 <_vfprintf_r+0x498>
 804bae7:	83 8d 4c ff ff ff 10 	orl    $0x10,-0xb4(%ebp)
 804baee:	f6 85 4c ff ff ff 10 	testb  $0x10,-0xb4(%ebp)
 804baf5:	89 85 24 ff ff ff    	mov    %eax,-0xdc(%ebp)
 804bafb:	8b 45 14             	mov    0x14(%ebp),%eax
 804bafe:	89 4d 10             	mov    %ecx,0x10(%ebp)
 804bb01:	75 60                	jne    804bb63 <_vfprintf_r+0x6b3>
 804bb03:	f6 85 4c ff ff ff 40 	testb  $0x40,-0xb4(%ebp)
 804bb0a:	74 57                	je     804bb63 <_vfprintf_r+0x6b3>
 804bb0c:	0f b7 08             	movzwl (%eax),%ecx
 804bb0f:	83 c0 04             	add    $0x4,%eax
 804bb12:	89 45 14             	mov    %eax,0x14(%ebp)
 804bb15:	31 c0                	xor    %eax,%eax
 804bb17:	e9 2c fe ff ff       	jmp    804b948 <_vfprintf_r+0x498>
 804bb1c:	83 8d 4c ff ff ff 10 	orl    $0x10,-0xb4(%ebp)
 804bb23:	f6 85 4c ff ff ff 10 	testb  $0x10,-0xb4(%ebp)
 804bb2a:	89 85 24 ff ff ff    	mov    %eax,-0xdc(%ebp)
 804bb30:	8b 45 14             	mov    0x14(%ebp),%eax
 804bb33:	89 4d 10             	mov    %ecx,0x10(%ebp)
 804bb36:	0f 84 eb fd ff ff    	je     804b927 <_vfprintf_r+0x477>
 804bb3c:	8b 08                	mov    (%eax),%ecx
 804bb3e:	83 c0 04             	add    $0x4,%eax
 804bb41:	89 45 14             	mov    %eax,0x14(%ebp)
 804bb44:	b8 01 00 00 00       	mov    $0x1,%eax
 804bb49:	e9 fa fd ff ff       	jmp    804b948 <_vfprintf_r+0x498>
 804bb4e:	f6 85 4c ff ff ff 10 	testb  $0x10,-0xb4(%ebp)
 804bb55:	89 85 24 ff ff ff    	mov    %eax,-0xdc(%ebp)
 804bb5b:	8b 45 14             	mov    0x14(%ebp),%eax
 804bb5e:	89 4d 10             	mov    %ecx,0x10(%ebp)
 804bb61:	74 a0                	je     804bb03 <_vfprintf_r+0x653>
 804bb63:	8b 08                	mov    (%eax),%ecx
 804bb65:	83 c0 04             	add    $0x4,%eax
 804bb68:	89 45 14             	mov    %eax,0x14(%ebp)
 804bb6b:	31 c0                	xor    %eax,%eax
 804bb6d:	e9 d6 fd ff ff       	jmp    804b948 <_vfprintf_r+0x498>
 804bb72:	83 8d 4c ff ff ff 10 	orl    $0x10,-0xb4(%ebp)
 804bb79:	f6 85 4c ff ff ff 10 	testb  $0x10,-0xb4(%ebp)
 804bb80:	89 85 24 ff ff ff    	mov    %eax,-0xdc(%ebp)
 804bb86:	8b 45 14             	mov    0x14(%ebp),%eax
 804bb89:	89 4d 10             	mov    %ecx,0x10(%ebp)
 804bb8c:	88 9d 59 ff ff ff    	mov    %bl,-0xa7(%ebp)
 804bb92:	0f 85 d3 01 00 00    	jne    804bd6b <_vfprintf_r+0x8bb>
 804bb98:	f6 85 4c ff ff ff 40 	testb  $0x40,-0xb4(%ebp)
 804bb9f:	0f 84 c6 01 00 00    	je     804bd6b <_vfprintf_r+0x8bb>
 804bba5:	0f bf 08             	movswl (%eax),%ecx
 804bba8:	83 c0 04             	add    $0x4,%eax
 804bbab:	89 45 14             	mov    %eax,0x14(%ebp)
 804bbae:	85 c9                	test   %ecx,%ecx
 804bbb0:	0f 88 9b 0e 00 00    	js     804ca51 <_vfprintf_r+0x15a1>
 804bbb6:	0f b6 9d 59 ff ff ff 	movzbl -0xa7(%ebp),%ebx
 804bbbd:	b8 01 00 00 00       	mov    $0x1,%eax
 804bbc2:	e9 8a fd ff ff       	jmp    804b951 <_vfprintf_r+0x4a1>
 804bbc7:	f6 85 4c ff ff ff 08 	testb  $0x8,-0xb4(%ebp)
 804bbce:	89 85 24 ff ff ff    	mov    %eax,-0xdc(%ebp)
 804bbd4:	8b 45 14             	mov    0x14(%ebp),%eax
 804bbd7:	89 4d 10             	mov    %ecx,0x10(%ebp)
 804bbda:	88 9d 59 ff ff ff    	mov    %bl,-0xa7(%ebp)
 804bbe0:	0f 84 2a 10 00 00    	je     804cc10 <_vfprintf_r+0x1760>
 804bbe6:	db 28                	fldt   (%eax)
 804bbe8:	83 c0 0c             	add    $0xc,%eax
 804bbeb:	89 45 14             	mov    %eax,0x14(%ebp)
 804bbee:	dd 9d 10 ff ff ff    	fstpl  -0xf0(%ebp)
 804bbf4:	dd 85 10 ff ff ff    	fldl   -0xf0(%ebp)
 804bbfa:	dd 1c 24             	fstpl  (%esp)
 804bbfd:	e8 9e 47 00 00       	call   80503a0 <__fpclassifyd>
 804bc02:	83 f8 01             	cmp    $0x1,%eax
 804bc05:	0f 85 5e 0e 00 00    	jne    804ca69 <_vfprintf_r+0x15b9>
 804bc0b:	d9 ee                	fldz   
 804bc0d:	dd 85 10 ff ff ff    	fldl   -0xf0(%ebp)
 804bc13:	d9 c9                	fxch   %st(1)
 804bc15:	df e9                	fucomip %st(1),%st
 804bc17:	dd d8                	fstp   %st(0)
 804bc19:	0f 87 4d 14 00 00    	ja     804d06c <_vfprintf_r+0x1bbc>
 804bc1f:	0f b6 9d 59 ff ff ff 	movzbl -0xa7(%ebp),%ebx
 804bc26:	83 bd 24 ff ff ff 47 	cmpl   $0x47,-0xdc(%ebp)
 804bc2d:	ba 4e 3a 05 08       	mov    $0x8053a4e,%edx
 804bc32:	b8 52 3a 05 08       	mov    $0x8053a52,%eax
 804bc37:	c7 85 48 ff ff ff 03 	movl   $0x3,-0xb8(%ebp)
 804bc3e:	00 00 00 
 804bc41:	0f 4e c2             	cmovle %edx,%eax
 804bc44:	89 85 2c ff ff ff    	mov    %eax,-0xd4(%ebp)
 804bc4a:	81 a5 4c ff ff ff 7f 	andl   $0xffffff7f,-0xb4(%ebp)
 804bc51:	ff ff ff 
 804bc54:	c7 85 38 ff ff ff 03 	movl   $0x3,-0xc8(%ebp)
 804bc5b:	00 00 00 
 804bc5e:	c7 85 44 ff ff ff 00 	movl   $0x0,-0xbc(%ebp)
 804bc65:	00 00 00 
 804bc68:	c7 85 20 ff ff ff 00 	movl   $0x0,-0xe0(%ebp)
 804bc6f:	00 00 00 
 804bc72:	e9 89 fb ff ff       	jmp    804b800 <_vfprintf_r+0x350>
 804bc77:	83 8d 4c ff ff ff 08 	orl    $0x8,-0xb4(%ebp)
 804bc7e:	89 c8                	mov    %ecx,%eax
 804bc80:	e9 98 f9 ff ff       	jmp    804b61d <_vfprintf_r+0x16d>
 804bc85:	f6 85 4c ff ff ff 10 	testb  $0x10,-0xb4(%ebp)
 804bc8c:	89 85 24 ff ff ff    	mov    %eax,-0xdc(%ebp)
 804bc92:	8b 45 14             	mov    0x14(%ebp),%eax
 804bc95:	89 4d 10             	mov    %ecx,0x10(%ebp)
 804bc98:	88 9d 59 ff ff ff    	mov    %bl,-0xa7(%ebp)
 804bc9e:	c7 85 08 ff ff ff 6f 	movl   $0x8053a6f,-0xf8(%ebp)
 804bca5:	3a 05 08 
 804bca8:	0f 85 0d 01 00 00    	jne    804bdbb <_vfprintf_r+0x90b>
 804bcae:	f6 85 4c ff ff ff 40 	testb  $0x40,-0xb4(%ebp)
 804bcb5:	0f 84 00 01 00 00    	je     804bdbb <_vfprintf_r+0x90b>
 804bcbb:	0f b7 08             	movzwl (%eax),%ecx
 804bcbe:	83 c0 04             	add    $0x4,%eax
 804bcc1:	89 45 14             	mov    %eax,0x14(%ebp)
 804bcc4:	f6 85 4c ff ff ff 01 	testb  $0x1,-0xb4(%ebp)
 804bccb:	b8 02 00 00 00       	mov    $0x2,%eax
 804bcd0:	0f 84 72 fc ff ff    	je     804b948 <_vfprintf_r+0x498>
 804bcd6:	85 c9                	test   %ecx,%ecx
 804bcd8:	0f 84 6a fc ff ff    	je     804b948 <_vfprintf_r+0x498>
 804bcde:	0f b6 95 24 ff ff ff 	movzbl -0xdc(%ebp),%edx
 804bce5:	c6 85 5a ff ff ff 30 	movb   $0x30,-0xa6(%ebp)
 804bcec:	83 8d 4c ff ff ff 02 	orl    $0x2,-0xb4(%ebp)
 804bcf3:	88 95 5b ff ff ff    	mov    %dl,-0xa5(%ebp)
 804bcf9:	e9 4a fc ff ff       	jmp    804b948 <_vfprintf_r+0x498>
 804bcfe:	f6 85 4c ff ff ff 10 	testb  $0x10,-0xb4(%ebp)
 804bd05:	89 4d 10             	mov    %ecx,0x10(%ebp)
 804bd08:	88 9d 59 ff ff ff    	mov    %bl,-0xa7(%ebp)
 804bd0e:	0f 85 30 01 00 00    	jne    804be44 <_vfprintf_r+0x994>
 804bd14:	f6 85 4c ff ff ff 40 	testb  $0x40,-0xb4(%ebp)
 804bd1b:	0f 84 23 01 00 00    	je     804be44 <_vfprintf_r+0x994>
 804bd21:	8b 45 14             	mov    0x14(%ebp),%eax
 804bd24:	0f b7 95 28 ff ff ff 	movzwl -0xd8(%ebp),%edx
 804bd2b:	8b 00                	mov    (%eax),%eax
 804bd2d:	66 89 10             	mov    %dx,(%eax)
 804bd30:	8b 45 14             	mov    0x14(%ebp),%eax
 804bd33:	83 c0 04             	add    $0x4,%eax
 804bd36:	89 45 14             	mov    %eax,0x14(%ebp)
 804bd39:	e9 4e f8 ff ff       	jmp    804b58c <_vfprintf_r+0xdc>
 804bd3e:	83 8d 4c ff ff ff 40 	orl    $0x40,-0xb4(%ebp)
 804bd45:	89 c8                	mov    %ecx,%eax
 804bd47:	e9 d1 f8 ff ff       	jmp    804b61d <_vfprintf_r+0x16d>
 804bd4c:	f6 85 4c ff ff ff 10 	testb  $0x10,-0xb4(%ebp)
 804bd53:	89 85 24 ff ff ff    	mov    %eax,-0xdc(%ebp)
 804bd59:	8b 45 14             	mov    0x14(%ebp),%eax
 804bd5c:	89 4d 10             	mov    %ecx,0x10(%ebp)
 804bd5f:	88 9d 59 ff ff ff    	mov    %bl,-0xa7(%ebp)
 804bd65:	0f 84 2d fe ff ff    	je     804bb98 <_vfprintf_r+0x6e8>
 804bd6b:	8b 08                	mov    (%eax),%ecx
 804bd6d:	83 c0 04             	add    $0x4,%eax
 804bd70:	89 45 14             	mov    %eax,0x14(%ebp)
 804bd73:	e9 36 fe ff ff       	jmp    804bbae <_vfprintf_r+0x6fe>
 804bd78:	84 db                	test   %bl,%bl
 804bd7a:	89 c8                	mov    %ecx,%eax
 804bd7c:	0f 44 de             	cmove  %esi,%ebx
 804bd7f:	e9 99 f8 ff ff       	jmp    804b61d <_vfprintf_r+0x16d>
 804bd84:	83 8d 4c ff ff ff 01 	orl    $0x1,-0xb4(%ebp)
 804bd8b:	89 c8                	mov    %ecx,%eax
 804bd8d:	e9 8b f8 ff ff       	jmp    804b61d <_vfprintf_r+0x16d>
 804bd92:	f6 85 4c ff ff ff 10 	testb  $0x10,-0xb4(%ebp)
 804bd99:	89 85 24 ff ff ff    	mov    %eax,-0xdc(%ebp)
 804bd9f:	8b 45 14             	mov    0x14(%ebp),%eax
 804bda2:	89 4d 10             	mov    %ecx,0x10(%ebp)
 804bda5:	88 9d 59 ff ff ff    	mov    %bl,-0xa7(%ebp)
 804bdab:	c7 85 08 ff ff ff 5e 	movl   $0x8053a5e,-0xf8(%ebp)
 804bdb2:	3a 05 08 
 804bdb5:	0f 84 f3 fe ff ff    	je     804bcae <_vfprintf_r+0x7fe>
 804bdbb:	8b 08                	mov    (%eax),%ecx
 804bdbd:	83 c0 04             	add    $0x4,%eax
 804bdc0:	89 45 14             	mov    %eax,0x14(%ebp)
 804bdc3:	e9 fc fe ff ff       	jmp    804bcc4 <_vfprintf_r+0x814>
 804bdc8:	89 85 24 ff ff ff    	mov    %eax,-0xdc(%ebp)
 804bdce:	8b 45 14             	mov    0x14(%ebp),%eax
 804bdd1:	89 4d 10             	mov    %ecx,0x10(%ebp)
 804bdd4:	c6 85 59 ff ff ff 00 	movb   $0x0,-0xa7(%ebp)
 804bddb:	8b 00                	mov    (%eax),%eax
 804bddd:	88 45 80             	mov    %al,-0x80(%ebp)
 804bde0:	8b 45 14             	mov    0x14(%ebp),%eax
 804bde3:	83 c0 04             	add    $0x4,%eax
 804bde6:	89 45 14             	mov    %eax,0x14(%ebp)
 804bde9:	8d 45 80             	lea    -0x80(%ebp),%eax
 804bdec:	31 db                	xor    %ebx,%ebx
 804bdee:	c7 85 48 ff ff ff 01 	movl   $0x1,-0xb8(%ebp)
 804bdf5:	00 00 00 
 804bdf8:	c7 85 38 ff ff ff 01 	movl   $0x1,-0xc8(%ebp)
 804bdff:	00 00 00 
 804be02:	c7 85 44 ff ff ff 00 	movl   $0x0,-0xbc(%ebp)
 804be09:	00 00 00 
 804be0c:	c7 85 20 ff ff ff 00 	movl   $0x0,-0xe0(%ebp)
 804be13:	00 00 00 
 804be16:	89 85 2c ff ff ff    	mov    %eax,-0xd4(%ebp)
 804be1c:	e9 ea f9 ff ff       	jmp    804b80b <_vfprintf_r+0x35b>
 804be21:	85 c0                	test   %eax,%eax
 804be23:	89 85 24 ff ff ff    	mov    %eax,-0xdc(%ebp)
 804be29:	89 4d 10             	mov    %ecx,0x10(%ebp)
 804be2c:	88 9d 59 ff ff ff    	mov    %bl,-0xa7(%ebp)
 804be32:	0f 84 c8 f8 ff ff    	je     804b700 <_vfprintf_r+0x250>
 804be38:	88 45 80             	mov    %al,-0x80(%ebp)
 804be3b:	c6 85 59 ff ff ff 00 	movb   $0x0,-0xa7(%ebp)
 804be42:	eb a5                	jmp    804bde9 <_vfprintf_r+0x939>
 804be44:	8b 45 14             	mov    0x14(%ebp),%eax
 804be47:	8b 95 28 ff ff ff    	mov    -0xd8(%ebp),%edx
 804be4d:	8b 00                	mov    (%eax),%eax
 804be4f:	89 10                	mov    %edx,(%eax)
 804be51:	8b 45 14             	mov    0x14(%ebp),%eax
 804be54:	83 c0 04             	add    $0x4,%eax
 804be57:	89 45 14             	mov    %eax,0x14(%ebp)
 804be5a:	e9 2d f7 ff ff       	jmp    804b58c <_vfprintf_r+0xdc>
 804be5f:	90                   	nop
 804be60:	8b 8d 7c ff ff ff    	mov    -0x84(%ebp),%ecx
 804be66:	84 db                	test   %bl,%bl
 804be68:	74 33                	je     804be9d <_vfprintf_r+0x9ed>
 804be6a:	8d 85 59 ff ff ff    	lea    -0xa7(%ebp),%eax
 804be70:	83 c1 01             	add    $0x1,%ecx
 804be73:	89 07                	mov    %eax,(%edi)
 804be75:	8b 85 78 ff ff ff    	mov    -0x88(%ebp),%eax
 804be7b:	83 c7 08             	add    $0x8,%edi
 804be7e:	c7 47 fc 01 00 00 00 	movl   $0x1,-0x4(%edi)
 804be85:	89 8d 7c ff ff ff    	mov    %ecx,-0x84(%ebp)
 804be8b:	83 c0 01             	add    $0x1,%eax
 804be8e:	83 f8 07             	cmp    $0x7,%eax
 804be91:	89 85 78 ff ff ff    	mov    %eax,-0x88(%ebp)
 804be97:	0f 8f 43 06 00 00    	jg     804c4e0 <_vfprintf_r+0x1030>
 804be9d:	8b 9d 34 ff ff ff    	mov    -0xcc(%ebp),%ebx
 804bea3:	85 db                	test   %ebx,%ebx
 804bea5:	74 33                	je     804beda <_vfprintf_r+0xa2a>
 804bea7:	8d 85 5a ff ff ff    	lea    -0xa6(%ebp),%eax
 804bead:	83 c1 02             	add    $0x2,%ecx
 804beb0:	89 07                	mov    %eax,(%edi)
 804beb2:	8b 85 78 ff ff ff    	mov    -0x88(%ebp),%eax
 804beb8:	83 c7 08             	add    $0x8,%edi
 804bebb:	c7 47 fc 02 00 00 00 	movl   $0x2,-0x4(%edi)
 804bec2:	89 8d 7c ff ff ff    	mov    %ecx,-0x84(%ebp)
 804bec8:	83 c0 01             	add    $0x1,%eax
 804becb:	83 f8 07             	cmp    $0x7,%eax
 804bece:	89 85 78 ff ff ff    	mov    %eax,-0x88(%ebp)
 804bed4:	0f 8f 3e 06 00 00    	jg     804c518 <_vfprintf_r+0x1068>
 804beda:	81 bd 30 ff ff ff 80 	cmpl   $0x80,-0xd0(%ebp)
 804bee1:	00 00 00 
 804bee4:	0f 84 c6 03 00 00    	je     804c2b0 <_vfprintf_r+0xe00>
 804beea:	8b b5 44 ff ff ff    	mov    -0xbc(%ebp),%esi
 804bef0:	2b b5 38 ff ff ff    	sub    -0xc8(%ebp),%esi
 804bef6:	85 f6                	test   %esi,%esi
 804bef8:	0f 8e d2 00 00 00    	jle    804bfd0 <_vfprintf_r+0xb20>
 804befe:	83 fe 10             	cmp    $0x10,%esi
 804bf01:	8b 85 78 ff ff ff    	mov    -0x88(%ebp),%eax
 804bf07:	8d 9d 74 ff ff ff    	lea    -0x8c(%ebp),%ebx
 804bf0d:	7f 11                	jg     804bf20 <_vfprintf_r+0xa70>
 804bf0f:	eb 6b                	jmp    804bf7c <_vfprintf_r+0xacc>
 804bf11:	8d b4 26 00 00 00 00 	lea    0x0(%esi,%eiz,1),%esi
 804bf18:	83 ee 10             	sub    $0x10,%esi
 804bf1b:	83 fe 10             	cmp    $0x10,%esi
 804bf1e:	7e 5c                	jle    804bf7c <_vfprintf_r+0xacc>
 804bf20:	83 c0 01             	add    $0x1,%eax
 804bf23:	83 c1 10             	add    $0x10,%ecx
 804bf26:	c7 07 f0 3b 05 08    	movl   $0x8053bf0,(%edi)
 804bf2c:	83 c7 08             	add    $0x8,%edi
 804bf2f:	c7 47 fc 10 00 00 00 	movl   $0x10,-0x4(%edi)
 804bf36:	83 f8 07             	cmp    $0x7,%eax
 804bf39:	89 8d 7c ff ff ff    	mov    %ecx,-0x84(%ebp)
 804bf3f:	89 85 78 ff ff ff    	mov    %eax,-0x88(%ebp)
 804bf45:	7e d1                	jle    804bf18 <_vfprintf_r+0xa68>
 804bf47:	8b 45 0c             	mov    0xc(%ebp),%eax
 804bf4a:	89 5c 24 08          	mov    %ebx,0x8(%esp)
 804bf4e:	89 44 24 04          	mov    %eax,0x4(%esp)
 804bf52:	8b 45 08             	mov    0x8(%ebp),%eax
 804bf55:	89 04 24             	mov    %eax,(%esp)
 804bf58:	e8 83 46 00 00       	call   80505e0 <__sprint_r>
 804bf5d:	85 c0                	test   %eax,%eax
 804bf5f:	0f 85 c3 f7 ff ff    	jne    804b728 <_vfprintf_r+0x278>
 804bf65:	83 ee 10             	sub    $0x10,%esi
 804bf68:	8b 8d 7c ff ff ff    	mov    -0x84(%ebp),%ecx
 804bf6e:	83 fe 10             	cmp    $0x10,%esi
 804bf71:	8b 85 78 ff ff ff    	mov    -0x88(%ebp),%eax
 804bf77:	8d 7d a8             	lea    -0x58(%ebp),%edi
 804bf7a:	7f a4                	jg     804bf20 <_vfprintf_r+0xa70>
 804bf7c:	83 c0 01             	add    $0x1,%eax
 804bf7f:	01 f1                	add    %esi,%ecx
 804bf81:	c7 07 f0 3b 05 08    	movl   $0x8053bf0,(%edi)
 804bf87:	83 c7 08             	add    $0x8,%edi
 804bf8a:	89 77 fc             	mov    %esi,-0x4(%edi)
 804bf8d:	83 f8 07             	cmp    $0x7,%eax
 804bf90:	89 8d 7c ff ff ff    	mov    %ecx,-0x84(%ebp)
 804bf96:	89 85 78 ff ff ff    	mov    %eax,-0x88(%ebp)
 804bf9c:	7e 32                	jle    804bfd0 <_vfprintf_r+0xb20>
 804bf9e:	8d 85 74 ff ff ff    	lea    -0x8c(%ebp),%eax
 804bfa4:	89 44 24 08          	mov    %eax,0x8(%esp)
 804bfa8:	8b 45 0c             	mov    0xc(%ebp),%eax
 804bfab:	89 44 24 04          	mov    %eax,0x4(%esp)
 804bfaf:	8b 45 08             	mov    0x8(%ebp),%eax
 804bfb2:	89 04 24             	mov    %eax,(%esp)
 804bfb5:	e8 26 46 00 00       	call   80505e0 <__sprint_r>
 804bfba:	85 c0                	test   %eax,%eax
 804bfbc:	0f 85 66 f7 ff ff    	jne    804b728 <_vfprintf_r+0x278>
 804bfc2:	8b 8d 7c ff ff ff    	mov    -0x84(%ebp),%ecx
 804bfc8:	8d 7d a8             	lea    -0x58(%ebp),%edi
 804bfcb:	90                   	nop
 804bfcc:	8d 74 26 00          	lea    0x0(%esi,%eiz,1),%esi
 804bfd0:	f7 85 4c ff ff ff 00 	testl  $0x100,-0xb4(%ebp)
 804bfd7:	01 00 00 
 804bfda:	0f 85 50 01 00 00    	jne    804c130 <_vfprintf_r+0xc80>
 804bfe0:	8b 85 2c ff ff ff    	mov    -0xd4(%ebp),%eax
 804bfe6:	89 07                	mov    %eax,(%edi)
 804bfe8:	8b 85 38 ff ff ff    	mov    -0xc8(%ebp),%eax
 804bfee:	01 c1                	add    %eax,%ecx
 804bff0:	89 47 04             	mov    %eax,0x4(%edi)
 804bff3:	8b 85 78 ff ff ff    	mov    -0x88(%ebp),%eax
 804bff9:	89 8d 7c ff ff ff    	mov    %ecx,-0x84(%ebp)
 804bfff:	83 c0 01             	add    $0x1,%eax
 804c002:	83 f8 07             	cmp    $0x7,%eax
 804c005:	89 85 78 ff ff ff    	mov    %eax,-0x88(%ebp)
 804c00b:	0f 8f 6a 04 00 00    	jg     804c47b <_vfprintf_r+0xfcb>
 804c011:	83 c7 08             	add    $0x8,%edi
 804c014:	f6 85 4c ff ff ff 04 	testb  $0x4,-0xb4(%ebp)
 804c01b:	0f 84 d7 00 00 00    	je     804c0f8 <_vfprintf_r+0xc48>
 804c021:	8b b5 40 ff ff ff    	mov    -0xc0(%ebp),%esi
 804c027:	2b b5 48 ff ff ff    	sub    -0xb8(%ebp),%esi
 804c02d:	85 f6                	test   %esi,%esi
 804c02f:	0f 8e c3 00 00 00    	jle    804c0f8 <_vfprintf_r+0xc48>
 804c035:	83 fe 10             	cmp    $0x10,%esi
 804c038:	8b 85 78 ff ff ff    	mov    -0x88(%ebp),%eax
 804c03e:	8d 9d 74 ff ff ff    	lea    -0x8c(%ebp),%ebx
 804c044:	7f 0a                	jg     804c050 <_vfprintf_r+0xba0>
 804c046:	eb 64                	jmp    804c0ac <_vfprintf_r+0xbfc>
 804c048:	83 ee 10             	sub    $0x10,%esi
 804c04b:	83 fe 10             	cmp    $0x10,%esi
 804c04e:	7e 5c                	jle    804c0ac <_vfprintf_r+0xbfc>
 804c050:	83 c0 01             	add    $0x1,%eax
 804c053:	83 c1 10             	add    $0x10,%ecx
 804c056:	c7 07 00 3c 05 08    	movl   $0x8053c00,(%edi)
 804c05c:	83 c7 08             	add    $0x8,%edi
 804c05f:	c7 47 fc 10 00 00 00 	movl   $0x10,-0x4(%edi)
 804c066:	83 f8 07             	cmp    $0x7,%eax
 804c069:	89 8d 7c ff ff ff    	mov    %ecx,-0x84(%ebp)
 804c06f:	89 85 78 ff ff ff    	mov    %eax,-0x88(%ebp)
 804c075:	7e d1                	jle    804c048 <_vfprintf_r+0xb98>
 804c077:	8b 45 0c             	mov    0xc(%ebp),%eax
 804c07a:	89 5c 24 08          	mov    %ebx,0x8(%esp)
 804c07e:	89 44 24 04          	mov    %eax,0x4(%esp)
 804c082:	8b 45 08             	mov    0x8(%ebp),%eax
 804c085:	89 04 24             	mov    %eax,(%esp)
 804c088:	e8 53 45 00 00       	call   80505e0 <__sprint_r>
 804c08d:	85 c0                	test   %eax,%eax
 804c08f:	0f 85 93 f6 ff ff    	jne    804b728 <_vfprintf_r+0x278>
 804c095:	83 ee 10             	sub    $0x10,%esi
 804c098:	8b 8d 7c ff ff ff    	mov    -0x84(%ebp),%ecx
 804c09e:	83 fe 10             	cmp    $0x10,%esi
 804c0a1:	8b 85 78 ff ff ff    	mov    -0x88(%ebp),%eax
 804c0a7:	8d 7d a8             	lea    -0x58(%ebp),%edi
 804c0aa:	7f a4                	jg     804c050 <_vfprintf_r+0xba0>
 804c0ac:	83 c0 01             	add    $0x1,%eax
 804c0af:	01 f1                	add    %esi,%ecx
 804c0b1:	83 f8 07             	cmp    $0x7,%eax
 804c0b4:	c7 07 00 3c 05 08    	movl   $0x8053c00,(%edi)
 804c0ba:	89 77 04             	mov    %esi,0x4(%edi)
 804c0bd:	89 8d 7c ff ff ff    	mov    %ecx,-0x84(%ebp)
 804c0c3:	89 85 78 ff ff ff    	mov    %eax,-0x88(%ebp)
 804c0c9:	7e 2d                	jle    804c0f8 <_vfprintf_r+0xc48>
 804c0cb:	8d 85 74 ff ff ff    	lea    -0x8c(%ebp),%eax
 804c0d1:	89 44 24 08          	mov    %eax,0x8(%esp)
 804c0d5:	8b 45 0c             	mov    0xc(%ebp),%eax
 804c0d8:	89 44 24 04          	mov    %eax,0x4(%esp)
 804c0dc:	8b 45 08             	mov    0x8(%ebp),%eax
 804c0df:	89 04 24             	mov    %eax,(%esp)
 804c0e2:	e8 f9 44 00 00       	call   80505e0 <__sprint_r>
 804c0e7:	85 c0                	test   %eax,%eax
 804c0e9:	0f 85 39 f6 ff ff    	jne    804b728 <_vfprintf_r+0x278>
 804c0ef:	8b 8d 7c ff ff ff    	mov    -0x84(%ebp),%ecx
 804c0f5:	8d 76 00             	lea    0x0(%esi),%esi
 804c0f8:	8b 85 40 ff ff ff    	mov    -0xc0(%ebp),%eax
 804c0fe:	8b 95 48 ff ff ff    	mov    -0xb8(%ebp),%edx
 804c104:	39 c2                	cmp    %eax,%edx
 804c106:	0f 4d c2             	cmovge %edx,%eax
 804c109:	01 85 28 ff ff ff    	add    %eax,-0xd8(%ebp)
 804c10f:	85 c9                	test   %ecx,%ecx
 804c111:	0f 85 99 03 00 00    	jne    804c4b0 <_vfprintf_r+0x1000>
 804c117:	c7 85 78 ff ff ff 00 	movl   $0x0,-0x88(%ebp)
 804c11e:	00 00 00 
 804c121:	8d 7d a8             	lea    -0x58(%ebp),%edi
 804c124:	e9 63 f4 ff ff       	jmp    804b58c <_vfprintf_r+0xdc>
 804c129:	8d b4 26 00 00 00 00 	lea    0x0(%esi,%eiz,1),%esi
 804c130:	83 bd 24 ff ff ff 65 	cmpl   $0x65,-0xdc(%ebp)
 804c137:	0f 8e 5b 02 00 00    	jle    804c398 <_vfprintf_r+0xee8>
 804c13d:	d9 ee                	fldz   
 804c13f:	dd 85 10 ff ff ff    	fldl   -0xf0(%ebp)
 804c145:	df e9                	fucomip %st(1),%st
 804c147:	dd d8                	fstp   %st(0)
 804c149:	0f 8a 59 04 00 00    	jp     804c5a8 <_vfprintf_r+0x10f8>
 804c14f:	0f 85 53 04 00 00    	jne    804c5a8 <_vfprintf_r+0x10f8>
 804c155:	8b 85 78 ff ff ff    	mov    -0x88(%ebp),%eax
 804c15b:	83 c1 01             	add    $0x1,%ecx
 804c15e:	83 c7 08             	add    $0x8,%edi
 804c161:	c7 47 f8 87 3a 05 08 	movl   $0x8053a87,-0x8(%edi)
 804c168:	c7 47 fc 01 00 00 00 	movl   $0x1,-0x4(%edi)
 804c16f:	89 8d 7c ff ff ff    	mov    %ecx,-0x84(%ebp)
 804c175:	83 c0 01             	add    $0x1,%eax
 804c178:	83 f8 07             	cmp    $0x7,%eax
 804c17b:	89 85 78 ff ff ff    	mov    %eax,-0x88(%ebp)
 804c181:	0f 8f 9c 0a 00 00    	jg     804cc23 <_vfprintf_r+0x1773>
 804c187:	8b 85 1c ff ff ff    	mov    -0xe4(%ebp),%eax
 804c18d:	39 85 5c ff ff ff    	cmp    %eax,-0xa4(%ebp)
 804c193:	7c 0d                	jl     804c1a2 <_vfprintf_r+0xcf2>
 804c195:	f6 85 4c ff ff ff 01 	testb  $0x1,-0xb4(%ebp)
 804c19c:	0f 84 72 fe ff ff    	je     804c014 <_vfprintf_r+0xb64>
 804c1a2:	8b 85 18 ff ff ff    	mov    -0xe8(%ebp),%eax
 804c1a8:	83 c7 08             	add    $0x8,%edi
 804c1ab:	89 47 f8             	mov    %eax,-0x8(%edi)
 804c1ae:	8b 85 0c ff ff ff    	mov    -0xf4(%ebp),%eax
 804c1b4:	89 47 fc             	mov    %eax,-0x4(%edi)
 804c1b7:	01 c1                	add    %eax,%ecx
 804c1b9:	8b 85 78 ff ff ff    	mov    -0x88(%ebp),%eax
 804c1bf:	89 8d 7c ff ff ff    	mov    %ecx,-0x84(%ebp)
 804c1c5:	83 c0 01             	add    $0x1,%eax
 804c1c8:	83 f8 07             	cmp    $0x7,%eax
 804c1cb:	89 85 78 ff ff ff    	mov    %eax,-0x88(%ebp)
 804c1d1:	0f 8f 43 0c 00 00    	jg     804ce1a <_vfprintf_r+0x196a>
 804c1d7:	8b 85 1c ff ff ff    	mov    -0xe4(%ebp),%eax
 804c1dd:	8d 70 ff             	lea    -0x1(%eax),%esi
 804c1e0:	85 f6                	test   %esi,%esi
 804c1e2:	0f 8e 2c fe ff ff    	jle    804c014 <_vfprintf_r+0xb64>
 804c1e8:	83 fe 10             	cmp    $0x10,%esi
 804c1eb:	8b 85 78 ff ff ff    	mov    -0x88(%ebp),%eax
 804c1f1:	8d 9d 74 ff ff ff    	lea    -0x8c(%ebp),%ebx
 804c1f7:	7f 13                	jg     804c20c <_vfprintf_r+0xd5c>
 804c1f9:	e9 d4 05 00 00       	jmp    804c7d2 <_vfprintf_r+0x1322>
 804c1fe:	66 90                	xchg   %ax,%ax
 804c200:	83 ee 10             	sub    $0x10,%esi
 804c203:	83 fe 10             	cmp    $0x10,%esi
 804c206:	0f 8e c6 05 00 00    	jle    804c7d2 <_vfprintf_r+0x1322>
 804c20c:	83 c0 01             	add    $0x1,%eax
 804c20f:	83 c1 10             	add    $0x10,%ecx
 804c212:	c7 07 f0 3b 05 08    	movl   $0x8053bf0,(%edi)
 804c218:	83 c7 08             	add    $0x8,%edi
 804c21b:	c7 47 fc 10 00 00 00 	movl   $0x10,-0x4(%edi)
 804c222:	83 f8 07             	cmp    $0x7,%eax
 804c225:	89 8d 7c ff ff ff    	mov    %ecx,-0x84(%ebp)
 804c22b:	89 85 78 ff ff ff    	mov    %eax,-0x88(%ebp)
 804c231:	7e cd                	jle    804c200 <_vfprintf_r+0xd50>
 804c233:	8b 45 0c             	mov    0xc(%ebp),%eax
 804c236:	89 5c 24 08          	mov    %ebx,0x8(%esp)
 804c23a:	89 44 24 04          	mov    %eax,0x4(%esp)
 804c23e:	8b 45 08             	mov    0x8(%ebp),%eax
 804c241:	89 04 24             	mov    %eax,(%esp)
 804c244:	e8 97 43 00 00       	call   80505e0 <__sprint_r>
 804c249:	85 c0                	test   %eax,%eax
 804c24b:	0f 85 d7 f4 ff ff    	jne    804b728 <_vfprintf_r+0x278>
 804c251:	8b 8d 7c ff ff ff    	mov    -0x84(%ebp),%ecx
 804c257:	8d 7d a8             	lea    -0x58(%ebp),%edi
 804c25a:	8b 85 78 ff ff ff    	mov    -0x88(%ebp),%eax
 804c260:	eb 9e                	jmp    804c200 <_vfprintf_r+0xd50>
 804c262:	8d b6 00 00 00 00    	lea    0x0(%esi),%esi
 804c268:	84 c0                	test   %al,%al
 804c26a:	75 2c                	jne    804c298 <_vfprintf_r+0xde8>
 804c26c:	f6 85 4c ff ff ff 01 	testb  $0x1,-0xb4(%ebp)
 804c273:	74 23                	je     804c298 <_vfprintf_r+0xde8>
 804c275:	8b 85 00 ff ff ff    	mov    -0x100(%ebp),%eax
 804c27b:	c6 45 a7 30          	movb   $0x30,-0x59(%ebp)
 804c27f:	89 85 38 ff ff ff    	mov    %eax,-0xc8(%ebp)
 804c285:	8d 45 a7             	lea    -0x59(%ebp),%eax
 804c288:	89 85 2c ff ff ff    	mov    %eax,-0xd4(%ebp)
 804c28e:	e9 2d f7 ff ff       	jmp    804b9c0 <_vfprintf_r+0x510>
 804c293:	90                   	nop
 804c294:	8d 74 26 00          	lea    0x0(%esi,%eiz,1),%esi
 804c298:	8d 45 a8             	lea    -0x58(%ebp),%eax
 804c29b:	c7 85 38 ff ff ff 00 	movl   $0x0,-0xc8(%ebp)
 804c2a2:	00 00 00 
 804c2a5:	89 85 2c ff ff ff    	mov    %eax,-0xd4(%ebp)
 804c2ab:	e9 10 f7 ff ff       	jmp    804b9c0 <_vfprintf_r+0x510>
 804c2b0:	8b b5 40 ff ff ff    	mov    -0xc0(%ebp),%esi
 804c2b6:	2b b5 48 ff ff ff    	sub    -0xb8(%ebp),%esi
 804c2bc:	85 f6                	test   %esi,%esi
 804c2be:	0f 8e 26 fc ff ff    	jle    804beea <_vfprintf_r+0xa3a>
 804c2c4:	83 fe 10             	cmp    $0x10,%esi
 804c2c7:	8b 85 78 ff ff ff    	mov    -0x88(%ebp),%eax
 804c2cd:	8d 9d 74 ff ff ff    	lea    -0x8c(%ebp),%ebx
 804c2d3:	7f 0b                	jg     804c2e0 <_vfprintf_r+0xe30>
 804c2d5:	eb 65                	jmp    804c33c <_vfprintf_r+0xe8c>
 804c2d7:	90                   	nop
 804c2d8:	83 ee 10             	sub    $0x10,%esi
 804c2db:	83 fe 10             	cmp    $0x10,%esi
 804c2de:	7e 5c                	jle    804c33c <_vfprintf_r+0xe8c>
 804c2e0:	83 c0 01             	add    $0x1,%eax
 804c2e3:	83 c1 10             	add    $0x10,%ecx
 804c2e6:	c7 07 f0 3b 05 08    	movl   $0x8053bf0,(%edi)
 804c2ec:	83 c7 08             	add    $0x8,%edi
 804c2ef:	c7 47 fc 10 00 00 00 	movl   $0x10,-0x4(%edi)
 804c2f6:	83 f8 07             	cmp    $0x7,%eax
 804c2f9:	89 8d 7c ff ff ff    	mov    %ecx,-0x84(%ebp)
 804c2ff:	89 85 78 ff ff ff    	mov    %eax,-0x88(%ebp)
 804c305:	7e d1                	jle    804c2d8 <_vfprintf_r+0xe28>
 804c307:	8b 45 0c             	mov    0xc(%ebp),%eax
 804c30a:	89 5c 24 08          	mov    %ebx,0x8(%esp)
 804c30e:	89 44 24 04          	mov    %eax,0x4(%esp)
 804c312:	8b 45 08             	mov    0x8(%ebp),%eax
 804c315:	89 04 24             	mov    %eax,(%esp)
 804c318:	e8 c3 42 00 00       	call   80505e0 <__sprint_r>
 804c31d:	85 c0                	test   %eax,%eax
 804c31f:	0f 85 03 f4 ff ff    	jne    804b728 <_vfprintf_r+0x278>
 804c325:	83 ee 10             	sub    $0x10,%esi
 804c328:	8b 8d 7c ff ff ff    	mov    -0x84(%ebp),%ecx
 804c32e:	83 fe 10             	cmp    $0x10,%esi
 804c331:	8b 85 78 ff ff ff    	mov    -0x88(%ebp),%eax
 804c337:	8d 7d a8             	lea    -0x58(%ebp),%edi
 804c33a:	7f a4                	jg     804c2e0 <_vfprintf_r+0xe30>
 804c33c:	83 c0 01             	add    $0x1,%eax
 804c33f:	01 f1                	add    %esi,%ecx
 804c341:	c7 07 f0 3b 05 08    	movl   $0x8053bf0,(%edi)
 804c347:	83 c7 08             	add    $0x8,%edi
 804c34a:	89 77 fc             	mov    %esi,-0x4(%edi)
 804c34d:	83 f8 07             	cmp    $0x7,%eax
 804c350:	89 8d 7c ff ff ff    	mov    %ecx,-0x84(%ebp)
 804c356:	89 85 78 ff ff ff    	mov    %eax,-0x88(%ebp)
 804c35c:	0f 8e 88 fb ff ff    	jle    804beea <_vfprintf_r+0xa3a>
 804c362:	8d 85 74 ff ff ff    	lea    -0x8c(%ebp),%eax
 804c368:	89 44 24 08          	mov    %eax,0x8(%esp)
 804c36c:	8b 45 0c             	mov    0xc(%ebp),%eax
 804c36f:	89 44 24 04          	mov    %eax,0x4(%esp)
 804c373:	8b 45 08             	mov    0x8(%ebp),%eax
 804c376:	89 04 24             	mov    %eax,(%esp)
 804c379:	e8 62 42 00 00       	call   80505e0 <__sprint_r>
 804c37e:	85 c0                	test   %eax,%eax
 804c380:	0f 85 a2 f3 ff ff    	jne    804b728 <_vfprintf_r+0x278>
 804c386:	8b 8d 7c ff ff ff    	mov    -0x84(%ebp),%ecx
 804c38c:	8d 7d a8             	lea    -0x58(%ebp),%edi
 804c38f:	e9 56 fb ff ff       	jmp    804beea <_vfprintf_r+0xa3a>
 804c394:	8d 74 26 00          	lea    0x0(%esi,%eiz,1),%esi
 804c398:	83 bd 1c ff ff ff 01 	cmpl   $0x1,-0xe4(%ebp)
 804c39f:	8b 85 2c ff ff ff    	mov    -0xd4(%ebp),%eax
 804c3a5:	0f 8e b7 05 00 00    	jle    804c962 <_vfprintf_r+0x14b2>
 804c3ab:	89 07                	mov    %eax,(%edi)
 804c3ad:	8b 85 78 ff ff ff    	mov    -0x88(%ebp),%eax
 804c3b3:	8d 51 01             	lea    0x1(%ecx),%edx
 804c3b6:	c7 47 04 01 00 00 00 	movl   $0x1,0x4(%edi)
 804c3bd:	83 c7 08             	add    $0x8,%edi
 804c3c0:	89 95 7c ff ff ff    	mov    %edx,-0x84(%ebp)
 804c3c6:	83 c0 01             	add    $0x1,%eax
 804c3c9:	83 f8 07             	cmp    $0x7,%eax
 804c3cc:	89 85 78 ff ff ff    	mov    %eax,-0x88(%ebp)
 804c3d2:	0f 8f f9 05 00 00    	jg     804c9d1 <_vfprintf_r+0x1521>
 804c3d8:	8b 9d 18 ff ff ff    	mov    -0xe8(%ebp),%ebx
 804c3de:	83 c0 01             	add    $0x1,%eax
 804c3e1:	83 c7 08             	add    $0x8,%edi
 804c3e4:	89 85 78 ff ff ff    	mov    %eax,-0x88(%ebp)
 804c3ea:	89 5f f8             	mov    %ebx,-0x8(%edi)
 804c3ed:	8b 9d 0c ff ff ff    	mov    -0xf4(%ebp),%ebx
 804c3f3:	89 5f fc             	mov    %ebx,-0x4(%edi)
 804c3f6:	01 da                	add    %ebx,%edx
 804c3f8:	83 f8 07             	cmp    $0x7,%eax
 804c3fb:	89 95 7c ff ff ff    	mov    %edx,-0x84(%ebp)
 804c401:	0f 8f 12 06 00 00    	jg     804ca19 <_vfprintf_r+0x1569>
 804c407:	d9 ee                	fldz   
 804c409:	dd 85 10 ff ff ff    	fldl   -0xf0(%ebp)
 804c40f:	df e9                	fucomip %st(1),%st
 804c411:	dd d8                	fstp   %st(0)
 804c413:	7a 06                	jp     804c41b <_vfprintf_r+0xf6b>
 804c415:	0f 84 33 03 00 00    	je     804c74e <_vfprintf_r+0x129e>
 804c41b:	8b 8d 2c ff ff ff    	mov    -0xd4(%ebp),%ecx
 804c421:	8b 9d 1c ff ff ff    	mov    -0xe4(%ebp),%ebx
 804c427:	83 c1 01             	add    $0x1,%ecx
 804c42a:	89 0f                	mov    %ecx,(%edi)
 804c42c:	8d 4b ff             	lea    -0x1(%ebx),%ecx
 804c42f:	89 4f 04             	mov    %ecx,0x4(%edi)
 804c432:	01 ca                	add    %ecx,%edx
 804c434:	83 c0 01             	add    $0x1,%eax
 804c437:	83 f8 07             	cmp    $0x7,%eax
 804c43a:	89 95 7c ff ff ff    	mov    %edx,-0x84(%ebp)
 804c440:	89 85 78 ff ff ff    	mov    %eax,-0x88(%ebp)
 804c446:	0f 8f 4d 05 00 00    	jg     804c999 <_vfprintf_r+0x14e9>
 804c44c:	83 c7 08             	add    $0x8,%edi
 804c44f:	8b 9d 04 ff ff ff    	mov    -0xfc(%ebp),%ebx
 804c455:	8d 8d 65 ff ff ff    	lea    -0x9b(%ebp),%ecx
 804c45b:	89 0f                	mov    %ecx,(%edi)
 804c45d:	89 5f 04             	mov    %ebx,0x4(%edi)
 804c460:	8d 0c 1a             	lea    (%edx,%ebx,1),%ecx
 804c463:	83 c0 01             	add    $0x1,%eax
 804c466:	83 f8 07             	cmp    $0x7,%eax
 804c469:	89 8d 7c ff ff ff    	mov    %ecx,-0x84(%ebp)
 804c46f:	89 85 78 ff ff ff    	mov    %eax,-0x88(%ebp)
 804c475:	0f 8e 96 fb ff ff    	jle    804c011 <_vfprintf_r+0xb61>
 804c47b:	8d 85 74 ff ff ff    	lea    -0x8c(%ebp),%eax
 804c481:	89 44 24 08          	mov    %eax,0x8(%esp)
 804c485:	8b 45 0c             	mov    0xc(%ebp),%eax
 804c488:	89 44 24 04          	mov    %eax,0x4(%esp)
 804c48c:	8b 45 08             	mov    0x8(%ebp),%eax
 804c48f:	89 04 24             	mov    %eax,(%esp)
 804c492:	e8 49 41 00 00       	call   80505e0 <__sprint_r>
 804c497:	85 c0                	test   %eax,%eax
 804c499:	0f 85 89 f2 ff ff    	jne    804b728 <_vfprintf_r+0x278>
 804c49f:	8b 8d 7c ff ff ff    	mov    -0x84(%ebp),%ecx
 804c4a5:	8d 7d a8             	lea    -0x58(%ebp),%edi
 804c4a8:	e9 67 fb ff ff       	jmp    804c014 <_vfprintf_r+0xb64>
 804c4ad:	8d 76 00             	lea    0x0(%esi),%esi
 804c4b0:	8d 85 74 ff ff ff    	lea    -0x8c(%ebp),%eax
 804c4b6:	89 44 24 08          	mov    %eax,0x8(%esp)
 804c4ba:	8b 45 0c             	mov    0xc(%ebp),%eax
 804c4bd:	89 44 24 04          	mov    %eax,0x4(%esp)
 804c4c1:	8b 45 08             	mov    0x8(%ebp),%eax
 804c4c4:	89 04 24             	mov    %eax,(%esp)
 804c4c7:	e8 14 41 00 00       	call   80505e0 <__sprint_r>
 804c4cc:	85 c0                	test   %eax,%eax
 804c4ce:	0f 84 43 fc ff ff    	je     804c117 <_vfprintf_r+0xc67>
 804c4d4:	e9 4f f2 ff ff       	jmp    804b728 <_vfprintf_r+0x278>
 804c4d9:	8d b4 26 00 00 00 00 	lea    0x0(%esi,%eiz,1),%esi
 804c4e0:	8d 85 74 ff ff ff    	lea    -0x8c(%ebp),%eax
 804c4e6:	89 44 24 08          	mov    %eax,0x8(%esp)
 804c4ea:	8b 45 0c             	mov    0xc(%ebp),%eax
 804c4ed:	89 44 24 04          	mov    %eax,0x4(%esp)
 804c4f1:	8b 45 08             	mov    0x8(%ebp),%eax
 804c4f4:	89 04 24             	mov    %eax,(%esp)
 804c4f7:	e8 e4 40 00 00       	call   80505e0 <__sprint_r>
 804c4fc:	85 c0                	test   %eax,%eax
 804c4fe:	0f 85 24 f2 ff ff    	jne    804b728 <_vfprintf_r+0x278>
 804c504:	8b 8d 7c ff ff ff    	mov    -0x84(%ebp),%ecx
 804c50a:	8d 7d a8             	lea    -0x58(%ebp),%edi
 804c50d:	e9 8b f9 ff ff       	jmp    804be9d <_vfprintf_r+0x9ed>
 804c512:	8d b6 00 00 00 00    	lea    0x0(%esi),%esi
 804c518:	8d 85 74 ff ff ff    	lea    -0x8c(%ebp),%eax
 804c51e:	89 44 24 08          	mov    %eax,0x8(%esp)
 804c522:	8b 45 0c             	mov    0xc(%ebp),%eax
 804c525:	89 44 24 04          	mov    %eax,0x4(%esp)
 804c529:	8b 45 08             	mov    0x8(%ebp),%eax
 804c52c:	89 04 24             	mov    %eax,(%esp)
 804c52f:	e8 ac 40 00 00       	call   80505e0 <__sprint_r>
 804c534:	85 c0                	test   %eax,%eax
 804c536:	0f 85 ec f1 ff ff    	jne    804b728 <_vfprintf_r+0x278>
 804c53c:	8b 8d 7c ff ff ff    	mov    -0x84(%ebp),%ecx
 804c542:	8d 7d a8             	lea    -0x58(%ebp),%edi
 804c545:	e9 90 f9 ff ff       	jmp    804beda <_vfprintf_r+0xa2a>
 804c54a:	8d b6 00 00 00 00    	lea    0x0(%esi),%esi
 804c550:	89 c2                	mov    %eax,%edx
 804c552:	8d b6 00 00 00 00    	lea    0x0(%esi),%esi
 804c558:	89 c8                	mov    %ecx,%eax
 804c55a:	83 ea 01             	sub    $0x1,%edx
 804c55d:	83 e0 07             	and    $0x7,%eax
 804c560:	c1 e9 03             	shr    $0x3,%ecx
 804c563:	83 c0 30             	add    $0x30,%eax
 804c566:	85 c9                	test   %ecx,%ecx
 804c568:	88 02                	mov    %al,(%edx)
 804c56a:	75 ec                	jne    804c558 <_vfprintf_r+0x10a8>
 804c56c:	f6 85 4c ff ff ff 01 	testb  $0x1,-0xb4(%ebp)
 804c573:	89 95 2c ff ff ff    	mov    %edx,-0xd4(%ebp)
 804c579:	0f 84 5b 01 00 00    	je     804c6da <_vfprintf_r+0x122a>
 804c57f:	3c 30                	cmp    $0x30,%al
 804c581:	74 0b                	je     804c58e <_vfprintf_r+0x10de>
 804c583:	83 ad 2c ff ff ff 01 	subl   $0x1,-0xd4(%ebp)
 804c58a:	c6 42 ff 30          	movb   $0x30,-0x1(%edx)
 804c58e:	8d 45 a8             	lea    -0x58(%ebp),%eax
 804c591:	2b 85 2c ff ff ff    	sub    -0xd4(%ebp),%eax
 804c597:	89 85 38 ff ff ff    	mov    %eax,-0xc8(%ebp)
 804c59d:	e9 1e f4 ff ff       	jmp    804b9c0 <_vfprintf_r+0x510>
 804c5a2:	8d b6 00 00 00 00    	lea    0x0(%esi),%esi
 804c5a8:	8b 9d 5c ff ff ff    	mov    -0xa4(%ebp),%ebx
 804c5ae:	85 db                	test   %ebx,%ebx
 804c5b0:	0f 8e 9f 06 00 00    	jle    804cc55 <_vfprintf_r+0x17a5>
 804c5b6:	8b 95 2c ff ff ff    	mov    -0xd4(%ebp),%edx
 804c5bc:	8b 85 1c ff ff ff    	mov    -0xe4(%ebp),%eax
 804c5c2:	01 d0                	add    %edx,%eax
 804c5c4:	89 c3                	mov    %eax,%ebx
 804c5c6:	29 d3                	sub    %edx,%ebx
 804c5c8:	89 85 44 ff ff ff    	mov    %eax,-0xbc(%ebp)
 804c5ce:	89 d0                	mov    %edx,%eax
 804c5d0:	8b 95 20 ff ff ff    	mov    -0xe0(%ebp),%edx
 804c5d6:	39 d3                	cmp    %edx,%ebx
 804c5d8:	0f 4f da             	cmovg  %edx,%ebx
 804c5db:	85 db                	test   %ebx,%ebx
 804c5dd:	7e 28                	jle    804c607 <_vfprintf_r+0x1157>
 804c5df:	89 07                	mov    %eax,(%edi)
 804c5e1:	8b 85 78 ff ff ff    	mov    -0x88(%ebp),%eax
 804c5e7:	01 d9                	add    %ebx,%ecx
 804c5e9:	89 5f 04             	mov    %ebx,0x4(%edi)
 804c5ec:	83 c7 08             	add    $0x8,%edi
 804c5ef:	89 8d 7c ff ff ff    	mov    %ecx,-0x84(%ebp)
 804c5f5:	83 c0 01             	add    $0x1,%eax
 804c5f8:	83 f8 07             	cmp    $0x7,%eax
 804c5fb:	89 85 78 ff ff ff    	mov    %eax,-0x88(%ebp)
 804c601:	0f 8f e2 08 00 00    	jg     804cee9 <_vfprintf_r+0x1a39>
 804c607:	8b b5 20 ff ff ff    	mov    -0xe0(%ebp),%esi
 804c60d:	31 c0                	xor    %eax,%eax
 804c60f:	85 db                	test   %ebx,%ebx
 804c611:	0f 49 c3             	cmovns %ebx,%eax
 804c614:	29 c6                	sub    %eax,%esi
 804c616:	85 f6                	test   %esi,%esi
 804c618:	0f 8e 13 02 00 00    	jle    804c831 <_vfprintf_r+0x1381>
 804c61e:	83 fe 10             	cmp    $0x10,%esi
 804c621:	8b 85 78 ff ff ff    	mov    -0x88(%ebp),%eax
 804c627:	8d 9d 74 ff ff ff    	lea    -0x8c(%ebp),%ebx
 804c62d:	7f 15                	jg     804c644 <_vfprintf_r+0x1194>
 804c62f:	e9 ae 01 00 00       	jmp    804c7e2 <_vfprintf_r+0x1332>
 804c634:	8d 74 26 00          	lea    0x0(%esi,%eiz,1),%esi
 804c638:	83 ee 10             	sub    $0x10,%esi
 804c63b:	83 fe 10             	cmp    $0x10,%esi
 804c63e:	0f 8e 9e 01 00 00    	jle    804c7e2 <_vfprintf_r+0x1332>
 804c644:	83 c0 01             	add    $0x1,%eax
 804c647:	83 c1 10             	add    $0x10,%ecx
 804c64a:	c7 07 f0 3b 05 08    	movl   $0x8053bf0,(%edi)
 804c650:	83 c7 08             	add    $0x8,%edi
 804c653:	c7 47 fc 10 00 00 00 	movl   $0x10,-0x4(%edi)
 804c65a:	83 f8 07             	cmp    $0x7,%eax
 804c65d:	89 8d 7c ff ff ff    	mov    %ecx,-0x84(%ebp)
 804c663:	89 85 78 ff ff ff    	mov    %eax,-0x88(%ebp)
 804c669:	7e cd                	jle    804c638 <_vfprintf_r+0x1188>
 804c66b:	8b 45 0c             	mov    0xc(%ebp),%eax
 804c66e:	89 5c 24 08          	mov    %ebx,0x8(%esp)
 804c672:	89 44 24 04          	mov    %eax,0x4(%esp)
 804c676:	8b 45 08             	mov    0x8(%ebp),%eax
 804c679:	89 04 24             	mov    %eax,(%esp)
 804c67c:	e8 5f 3f 00 00       	call   80505e0 <__sprint_r>
 804c681:	85 c0                	test   %eax,%eax
 804c683:	0f 85 9f f0 ff ff    	jne    804b728 <_vfprintf_r+0x278>
 804c689:	8b 8d 7c ff ff ff    	mov    -0x84(%ebp),%ecx
 804c68f:	8d 7d a8             	lea    -0x58(%ebp),%edi
 804c692:	8b 85 78 ff ff ff    	mov    -0x88(%ebp),%eax
 804c698:	eb 9e                	jmp    804c638 <_vfprintf_r+0x1188>
 804c69a:	8d 45 a8             	lea    -0x58(%ebp),%eax
 804c69d:	be cd cc cc cc       	mov    $0xcccccccd,%esi
 804c6a2:	89 bd 48 ff ff ff    	mov    %edi,-0xb8(%ebp)
 804c6a8:	89 c7                	mov    %eax,%edi
 804c6aa:	8d b6 00 00 00 00    	lea    0x0(%esi),%esi
 804c6b0:	89 c8                	mov    %ecx,%eax
 804c6b2:	83 ef 01             	sub    $0x1,%edi
 804c6b5:	f7 e6                	mul    %esi
 804c6b7:	c1 ea 03             	shr    $0x3,%edx
 804c6ba:	8d 04 92             	lea    (%edx,%edx,4),%eax
 804c6bd:	01 c0                	add    %eax,%eax
 804c6bf:	29 c1                	sub    %eax,%ecx
 804c6c1:	83 c1 30             	add    $0x30,%ecx
 804c6c4:	85 d2                	test   %edx,%edx
 804c6c6:	88 0f                	mov    %cl,(%edi)
 804c6c8:	89 d1                	mov    %edx,%ecx
 804c6ca:	75 e4                	jne    804c6b0 <_vfprintf_r+0x1200>
 804c6cc:	89 fa                	mov    %edi,%edx
 804c6ce:	89 bd 2c ff ff ff    	mov    %edi,-0xd4(%ebp)
 804c6d4:	8b bd 48 ff ff ff    	mov    -0xb8(%ebp),%edi
 804c6da:	8d 45 a8             	lea    -0x58(%ebp),%eax
 804c6dd:	29 d0                	sub    %edx,%eax
 804c6df:	89 85 38 ff ff ff    	mov    %eax,-0xc8(%ebp)
 804c6e5:	e9 d6 f2 ff ff       	jmp    804b9c0 <_vfprintf_r+0x510>
 804c6ea:	8d b6 00 00 00 00    	lea    0x0(%esi),%esi
 804c6f0:	83 f9 09             	cmp    $0x9,%ecx
 804c6f3:	77 a5                	ja     804c69a <_vfprintf_r+0x11ea>
 804c6f5:	8b 85 00 ff ff ff    	mov    -0x100(%ebp),%eax
 804c6fb:	83 c1 30             	add    $0x30,%ecx
 804c6fe:	88 4d a7             	mov    %cl,-0x59(%ebp)
 804c701:	89 85 38 ff ff ff    	mov    %eax,-0xc8(%ebp)
 804c707:	8d 45 a7             	lea    -0x59(%ebp),%eax
 804c70a:	89 85 2c ff ff ff    	mov    %eax,-0xd4(%ebp)
 804c710:	e9 ab f2 ff ff       	jmp    804b9c0 <_vfprintf_r+0x510>
 804c715:	8d 85 74 ff ff ff    	lea    -0x8c(%ebp),%eax
 804c71b:	89 44 24 08          	mov    %eax,0x8(%esp)
 804c71f:	8b 45 0c             	mov    0xc(%ebp),%eax
 804c722:	89 44 24 04          	mov    %eax,0x4(%esp)
 804c726:	8b 45 08             	mov    0x8(%ebp),%eax
 804c729:	89 04 24             	mov    %eax,(%esp)
 804c72c:	e8 af 3e 00 00       	call   80505e0 <__sprint_r>
 804c731:	85 c0                	test   %eax,%eax
 804c733:	0f 85 ef ef ff ff    	jne    804b728 <_vfprintf_r+0x278>
 804c739:	0f b6 9d 59 ff ff ff 	movzbl -0xa7(%ebp),%ebx
 804c740:	8d 7d a8             	lea    -0x58(%ebp),%edi
 804c743:	8b 8d 7c ff ff ff    	mov    -0x84(%ebp),%ecx
 804c749:	e9 18 f7 ff ff       	jmp    804be66 <_vfprintf_r+0x9b6>
 804c74e:	8b 9d 1c ff ff ff    	mov    -0xe4(%ebp),%ebx
 804c754:	8d 73 ff             	lea    -0x1(%ebx),%esi
 804c757:	85 f6                	test   %esi,%esi
 804c759:	0f 8e f0 fc ff ff    	jle    804c44f <_vfprintf_r+0xf9f>
 804c75f:	83 fe 10             	cmp    $0x10,%esi
 804c762:	0f 8e a1 02 00 00    	jle    804ca09 <_vfprintf_r+0x1559>
 804c768:	8d 9d 74 ff ff ff    	lea    -0x8c(%ebp),%ebx
 804c76e:	eb 0c                	jmp    804c77c <_vfprintf_r+0x12cc>
 804c770:	83 ee 10             	sub    $0x10,%esi
 804c773:	83 fe 10             	cmp    $0x10,%esi
 804c776:	0f 8e 8d 02 00 00    	jle    804ca09 <_vfprintf_r+0x1559>
 804c77c:	83 c0 01             	add    $0x1,%eax
 804c77f:	83 c2 10             	add    $0x10,%edx
 804c782:	c7 07 f0 3b 05 08    	movl   $0x8053bf0,(%edi)
 804c788:	83 c7 08             	add    $0x8,%edi
 804c78b:	c7 47 fc 10 00 00 00 	movl   $0x10,-0x4(%edi)
 804c792:	83 f8 07             	cmp    $0x7,%eax
 804c795:	89 95 7c ff ff ff    	mov    %edx,-0x84(%ebp)
 804c79b:	89 85 78 ff ff ff    	mov    %eax,-0x88(%ebp)
 804c7a1:	7e cd                	jle    804c770 <_vfprintf_r+0x12c0>
 804c7a3:	8b 45 0c             	mov    0xc(%ebp),%eax
 804c7a6:	89 5c 24 08          	mov    %ebx,0x8(%esp)
 804c7aa:	89 44 24 04          	mov    %eax,0x4(%esp)
 804c7ae:	8b 45 08             	mov    0x8(%ebp),%eax
 804c7b1:	89 04 24             	mov    %eax,(%esp)
 804c7b4:	e8 27 3e 00 00       	call   80505e0 <__sprint_r>
 804c7b9:	85 c0                	test   %eax,%eax
 804c7bb:	0f 85 67 ef ff ff    	jne    804b728 <_vfprintf_r+0x278>
 804c7c1:	8b 95 7c ff ff ff    	mov    -0x84(%ebp),%edx
 804c7c7:	8d 7d a8             	lea    -0x58(%ebp),%edi
 804c7ca:	8b 85 78 ff ff ff    	mov    -0x88(%ebp),%eax
 804c7d0:	eb 9e                	jmp    804c770 <_vfprintf_r+0x12c0>
 804c7d2:	c7 07 f0 3b 05 08    	movl   $0x8053bf0,(%edi)
 804c7d8:	01 f1                	add    %esi,%ecx
 804c7da:	89 77 04             	mov    %esi,0x4(%edi)
 804c7dd:	e9 81 fc ff ff       	jmp    804c463 <_vfprintf_r+0xfb3>
 804c7e2:	83 c0 01             	add    $0x1,%eax
 804c7e5:	01 f1                	add    %esi,%ecx
 804c7e7:	c7 07 f0 3b 05 08    	movl   $0x8053bf0,(%edi)
 804c7ed:	83 c7 08             	add    $0x8,%edi
 804c7f0:	89 77 fc             	mov    %esi,-0x4(%edi)
 804c7f3:	83 f8 07             	cmp    $0x7,%eax
 804c7f6:	89 8d 7c ff ff ff    	mov    %ecx,-0x84(%ebp)
 804c7fc:	89 85 78 ff ff ff    	mov    %eax,-0x88(%ebp)
 804c802:	7e 2d                	jle    804c831 <_vfprintf_r+0x1381>
 804c804:	8d 85 74 ff ff ff    	lea    -0x8c(%ebp),%eax
 804c80a:	89 44 24 08          	mov    %eax,0x8(%esp)
 804c80e:	8b 45 0c             	mov    0xc(%ebp),%eax
 804c811:	89 44 24 04          	mov    %eax,0x4(%esp)
 804c815:	8b 45 08             	mov    0x8(%ebp),%eax
 804c818:	89 04 24             	mov    %eax,(%esp)
 804c81b:	e8 c0 3d 00 00       	call   80505e0 <__sprint_r>
 804c820:	85 c0                	test   %eax,%eax
 804c822:	0f 85 00 ef ff ff    	jne    804b728 <_vfprintf_r+0x278>
 804c828:	8b 8d 7c ff ff ff    	mov    -0x84(%ebp),%ecx
 804c82e:	8d 7d a8             	lea    -0x58(%ebp),%edi
 804c831:	8b 85 2c ff ff ff    	mov    -0xd4(%ebp),%eax
 804c837:	8b 95 5c ff ff ff    	mov    -0xa4(%ebp),%edx
 804c83d:	03 85 20 ff ff ff    	add    -0xe0(%ebp),%eax
 804c843:	3b 95 1c ff ff ff    	cmp    -0xe4(%ebp),%edx
 804c849:	89 c6                	mov    %eax,%esi
 804c84b:	7c 0d                	jl     804c85a <_vfprintf_r+0x13aa>
 804c84d:	f6 85 4c ff ff ff 01 	testb  $0x1,-0xb4(%ebp)
 804c854:	0f 84 61 05 00 00    	je     804cdbb <_vfprintf_r+0x190b>
 804c85a:	8b 85 18 ff ff ff    	mov    -0xe8(%ebp),%eax
 804c860:	89 07                	mov    %eax,(%edi)
 804c862:	8b 85 0c ff ff ff    	mov    -0xf4(%ebp),%eax
 804c868:	01 c1                	add    %eax,%ecx
 804c86a:	89 47 04             	mov    %eax,0x4(%edi)
 804c86d:	8b 85 78 ff ff ff    	mov    -0x88(%ebp),%eax
 804c873:	89 8d 7c ff ff ff    	mov    %ecx,-0x84(%ebp)
 804c879:	83 c0 01             	add    $0x1,%eax
 804c87c:	83 f8 07             	cmp    $0x7,%eax
 804c87f:	89 85 78 ff ff ff    	mov    %eax,-0x88(%ebp)
 804c885:	0f 8f 90 06 00 00    	jg     804cf1b <_vfprintf_r+0x1a6b>
 804c88b:	83 c7 08             	add    $0x8,%edi
 804c88e:	89 d0                	mov    %edx,%eax
 804c890:	8b 9d 44 ff ff ff    	mov    -0xbc(%ebp),%ebx
 804c896:	89 f2                	mov    %esi,%edx
 804c898:	29 f3                	sub    %esi,%ebx
 804c89a:	8b b5 1c ff ff ff    	mov    -0xe4(%ebp),%esi
 804c8a0:	29 c6                	sub    %eax,%esi
 804c8a2:	39 de                	cmp    %ebx,%esi
 804c8a4:	0f 4e de             	cmovle %esi,%ebx
 804c8a7:	85 db                	test   %ebx,%ebx
 804c8a9:	7e 29                	jle    804c8d4 <_vfprintf_r+0x1424>
 804c8ab:	8b 85 78 ff ff ff    	mov    -0x88(%ebp),%eax
 804c8b1:	01 d9                	add    %ebx,%ecx
 804c8b3:	83 c7 08             	add    $0x8,%edi
 804c8b6:	89 57 f8             	mov    %edx,-0x8(%edi)
 804c8b9:	89 5f fc             	mov    %ebx,-0x4(%edi)
 804c8bc:	89 8d 7c ff ff ff    	mov    %ecx,-0x84(%ebp)
 804c8c2:	83 c0 01             	add    $0x1,%eax
 804c8c5:	83 f8 07             	cmp    $0x7,%eax
 804c8c8:	89 85 78 ff ff ff    	mov    %eax,-0x88(%ebp)
 804c8ce:	0f 8f 7f 06 00 00    	jg     804cf53 <_vfprintf_r+0x1aa3>
 804c8d4:	31 c0                	xor    %eax,%eax
 804c8d6:	85 db                	test   %ebx,%ebx
 804c8d8:	0f 49 c3             	cmovns %ebx,%eax
 804c8db:	29 c6                	sub    %eax,%esi
 804c8dd:	85 f6                	test   %esi,%esi
 804c8df:	0f 8e 2f f7 ff ff    	jle    804c014 <_vfprintf_r+0xb64>
 804c8e5:	83 fe 10             	cmp    $0x10,%esi
 804c8e8:	8b 85 78 ff ff ff    	mov    -0x88(%ebp),%eax
 804c8ee:	8d 9d 74 ff ff ff    	lea    -0x8c(%ebp),%ebx
 804c8f4:	7f 16                	jg     804c90c <_vfprintf_r+0x145c>
 804c8f6:	e9 d7 fe ff ff       	jmp    804c7d2 <_vfprintf_r+0x1322>
 804c8fb:	90                   	nop
 804c8fc:	8d 74 26 00          	lea    0x0(%esi,%eiz,1),%esi
 804c900:	83 ee 10             	sub    $0x10,%esi
 804c903:	83 fe 10             	cmp    $0x10,%esi
 804c906:	0f 8e c6 fe ff ff    	jle    804c7d2 <_vfprintf_r+0x1322>
 804c90c:	83 c0 01             	add    $0x1,%eax
 804c90f:	83 c1 10             	add    $0x10,%ecx
 804c912:	c7 07 f0 3b 05 08    	movl   $0x8053bf0,(%edi)
 804c918:	83 c7 08             	add    $0x8,%edi
 804c91b:	c7 47 fc 10 00 00 00 	movl   $0x10,-0x4(%edi)
 804c922:	83 f8 07             	cmp    $0x7,%eax
 804c925:	89 8d 7c ff ff ff    	mov    %ecx,-0x84(%ebp)
 804c92b:	89 85 78 ff ff ff    	mov    %eax,-0x88(%ebp)
 804c931:	7e cd                	jle    804c900 <_vfprintf_r+0x1450>
 804c933:	8b 45 0c             	mov    0xc(%ebp),%eax
 804c936:	89 5c 24 08          	mov    %ebx,0x8(%esp)
 804c93a:	89 44 24 04          	mov    %eax,0x4(%esp)
 804c93e:	8b 45 08             	mov    0x8(%ebp),%eax
 804c941:	89 04 24             	mov    %eax,(%esp)
 804c944:	e8 97 3c 00 00       	call   80505e0 <__sprint_r>
 804c949:	85 c0                	test   %eax,%eax
 804c94b:	0f 85 d7 ed ff ff    	jne    804b728 <_vfprintf_r+0x278>
 804c951:	8b 8d 7c ff ff ff    	mov    -0x84(%ebp),%ecx
 804c957:	8d 7d a8             	lea    -0x58(%ebp),%edi
 804c95a:	8b 85 78 ff ff ff    	mov    -0x88(%ebp),%eax
 804c960:	eb 9e                	jmp    804c900 <_vfprintf_r+0x1450>
 804c962:	f6 85 4c ff ff ff 01 	testb  $0x1,-0xb4(%ebp)
 804c969:	0f 85 3c fa ff ff    	jne    804c3ab <_vfprintf_r+0xefb>
 804c96f:	89 07                	mov    %eax,(%edi)
 804c971:	8b 85 78 ff ff ff    	mov    -0x88(%ebp),%eax
 804c977:	8d 51 01             	lea    0x1(%ecx),%edx
 804c97a:	c7 47 04 01 00 00 00 	movl   $0x1,0x4(%edi)
 804c981:	89 95 7c ff ff ff    	mov    %edx,-0x84(%ebp)
 804c987:	83 c0 01             	add    $0x1,%eax
 804c98a:	83 f8 07             	cmp    $0x7,%eax
 804c98d:	89 85 78 ff ff ff    	mov    %eax,-0x88(%ebp)
 804c993:	0f 8e b3 fa ff ff    	jle    804c44c <_vfprintf_r+0xf9c>
 804c999:	8d 85 74 ff ff ff    	lea    -0x8c(%ebp),%eax
 804c99f:	89 44 24 08          	mov    %eax,0x8(%esp)
 804c9a3:	8b 45 0c             	mov    0xc(%ebp),%eax
 804c9a6:	89 44 24 04          	mov    %eax,0x4(%esp)
 804c9aa:	8b 45 08             	mov    0x8(%ebp),%eax
 804c9ad:	89 04 24             	mov    %eax,(%esp)
 804c9b0:	e8 2b 3c 00 00       	call   80505e0 <__sprint_r>
 804c9b5:	85 c0                	test   %eax,%eax
 804c9b7:	0f 85 6b ed ff ff    	jne    804b728 <_vfprintf_r+0x278>
 804c9bd:	8b 95 7c ff ff ff    	mov    -0x84(%ebp),%edx
 804c9c3:	8d 7d a8             	lea    -0x58(%ebp),%edi
 804c9c6:	8b 85 78 ff ff ff    	mov    -0x88(%ebp),%eax
 804c9cc:	e9 7e fa ff ff       	jmp    804c44f <_vfprintf_r+0xf9f>
 804c9d1:	8d 85 74 ff ff ff    	lea    -0x8c(%ebp),%eax
 804c9d7:	89 44 24 08          	mov    %eax,0x8(%esp)
 804c9db:	8b 45 0c             	mov    0xc(%ebp),%eax
 804c9de:	89 44 24 04          	mov    %eax,0x4(%esp)
 804c9e2:	8b 45 08             	mov    0x8(%ebp),%eax
 804c9e5:	89 04 24             	mov    %eax,(%esp)
 804c9e8:	e8 f3 3b 00 00       	call   80505e0 <__sprint_r>
 804c9ed:	85 c0                	test   %eax,%eax
 804c9ef:	0f 85 33 ed ff ff    	jne    804b728 <_vfprintf_r+0x278>
 804c9f5:	8b 95 7c ff ff ff    	mov    -0x84(%ebp),%edx
 804c9fb:	8d 7d a8             	lea    -0x58(%ebp),%edi
 804c9fe:	8b 85 78 ff ff ff    	mov    -0x88(%ebp),%eax
 804ca04:	e9 cf f9 ff ff       	jmp    804c3d8 <_vfprintf_r+0xf28>
 804ca09:	c7 07 f0 3b 05 08    	movl   $0x8053bf0,(%edi)
 804ca0f:	01 f2                	add    %esi,%edx
 804ca11:	89 77 04             	mov    %esi,0x4(%edi)
 804ca14:	e9 1b fa ff ff       	jmp    804c434 <_vfprintf_r+0xf84>
 804ca19:	8d 85 74 ff ff ff    	lea    -0x8c(%ebp),%eax
 804ca1f:	89 44 24 08          	mov    %eax,0x8(%esp)
 804ca23:	8b 45 0c             	mov    0xc(%ebp),%eax
 804ca26:	89 44 24 04          	mov    %eax,0x4(%esp)
 804ca2a:	8b 45 08             	mov    0x8(%ebp),%eax
 804ca2d:	89 04 24             	mov    %eax,(%esp)
 804ca30:	e8 ab 3b 00 00       	call   80505e0 <__sprint_r>
 804ca35:	85 c0                	test   %eax,%eax
 804ca37:	0f 85 eb ec ff ff    	jne    804b728 <_vfprintf_r+0x278>
 804ca3d:	8b 95 7c ff ff ff    	mov    -0x84(%ebp),%edx
 804ca43:	8d 7d a8             	lea    -0x58(%ebp),%edi
 804ca46:	8b 85 78 ff ff ff    	mov    -0x88(%ebp),%eax
 804ca4c:	e9 b6 f9 ff ff       	jmp    804c407 <_vfprintf_r+0xf57>
 804ca51:	f7 d9                	neg    %ecx
 804ca53:	bb 2d 00 00 00       	mov    $0x2d,%ebx
 804ca58:	c6 85 59 ff ff ff 2d 	movb   $0x2d,-0xa7(%ebp)
 804ca5f:	b8 01 00 00 00       	mov    $0x1,%eax
 804ca64:	e9 e8 ee ff ff       	jmp    804b951 <_vfprintf_r+0x4a1>
 804ca69:	dd 85 10 ff ff ff    	fldl   -0xf0(%ebp)
 804ca6f:	dd 1c 24             	fstpl  (%esp)
 804ca72:	e8 29 39 00 00       	call   80503a0 <__fpclassifyd>
 804ca77:	85 c0                	test   %eax,%eax
 804ca79:	0f 84 e4 02 00 00    	je     804cd63 <_vfprintf_r+0x18b3>
 804ca7f:	8b 9d 24 ff ff ff    	mov    -0xdc(%ebp),%ebx
 804ca85:	83 e3 df             	and    $0xffffffdf,%ebx
 804ca88:	83 bd 44 ff ff ff ff 	cmpl   $0xffffffff,-0xbc(%ebp)
 804ca8f:	0f 84 b1 07 00 00    	je     804d246 <_vfprintf_r+0x1d96>
 804ca95:	83 fb 47             	cmp    $0x47,%ebx
 804ca98:	75 16                	jne    804cab0 <_vfprintf_r+0x1600>
 804ca9a:	8b 95 44 ff ff ff    	mov    -0xbc(%ebp),%edx
 804caa0:	b8 01 00 00 00       	mov    $0x1,%eax
 804caa5:	85 d2                	test   %edx,%edx
 804caa7:	0f 45 c2             	cmovne %edx,%eax
 804caaa:	89 85 44 ff ff ff    	mov    %eax,-0xbc(%ebp)
 804cab0:	8b 85 4c ff ff ff    	mov    -0xb4(%ebp),%eax
 804cab6:	dd 85 10 ff ff ff    	fldl   -0xf0(%ebp)
 804cabc:	dd 95 38 ff ff ff    	fstl   -0xc8(%ebp)
 804cac2:	80 cc 01             	or     $0x1,%ah
 804cac5:	89 85 34 ff ff ff    	mov    %eax,-0xcc(%ebp)
 804cacb:	8b 85 3c ff ff ff    	mov    -0xc4(%ebp),%eax
 804cad1:	c6 85 48 ff ff ff 00 	movb   $0x0,-0xb8(%ebp)
 804cad8:	85 c0                	test   %eax,%eax
 804cada:	0f 88 58 07 00 00    	js     804d238 <_vfprintf_r+0x1d88>
 804cae0:	83 fb 46             	cmp    $0x46,%ebx
 804cae3:	0f 94 c0             	sete   %al
 804cae6:	89 c6                	mov    %eax,%esi
 804cae8:	0f 84 f0 04 00 00    	je     804cfde <_vfprintf_r+0x1b2e>
 804caee:	83 fb 45             	cmp    $0x45,%ebx
 804caf1:	0f 85 37 07 00 00    	jne    804d22e <_vfprintf_r+0x1d7e>
 804caf7:	8b 85 44 ff ff ff    	mov    -0xbc(%ebp),%eax
 804cafd:	dd 54 24 04          	fstl   0x4(%esp)
 804cb01:	c7 44 24 0c 02 00 00 	movl   $0x2,0xc(%esp)
 804cb08:	00 
 804cb09:	dd 9d 38 ff ff ff    	fstpl  -0xc8(%ebp)
 804cb0f:	8d 70 01             	lea    0x1(%eax),%esi
 804cb12:	8d 85 6c ff ff ff    	lea    -0x94(%ebp),%eax
 804cb18:	89 44 24 1c          	mov    %eax,0x1c(%esp)
 804cb1c:	8d 85 60 ff ff ff    	lea    -0xa0(%ebp),%eax
 804cb22:	89 44 24 18          	mov    %eax,0x18(%esp)
 804cb26:	8d 85 5c ff ff ff    	lea    -0xa4(%ebp),%eax
 804cb2c:	89 44 24 14          	mov    %eax,0x14(%esp)
 804cb30:	8b 45 08             	mov    0x8(%ebp),%eax
 804cb33:	89 74 24 10          	mov    %esi,0x10(%esp)
 804cb37:	89 04 24             	mov    %eax,(%esp)
 804cb3a:	e8 81 0d 00 00       	call   804d8c0 <_dtoa_r>
 804cb3f:	89 85 2c ff ff ff    	mov    %eax,-0xd4(%ebp)
 804cb45:	8d 0c 30             	lea    (%eax,%esi,1),%ecx
 804cb48:	dd 85 38 ff ff ff    	fldl   -0xc8(%ebp)
 804cb4e:	d9 ee                	fldz   
 804cb50:	d9 c9                	fxch   %st(1)
 804cb52:	df e9                	fucomip %st(1),%st
 804cb54:	dd d8                	fstp   %st(0)
 804cb56:	0f 8a f8 01 00 00    	jp     804cd54 <_vfprintf_r+0x18a4>
 804cb5c:	89 c8                	mov    %ecx,%eax
 804cb5e:	0f 85 f0 01 00 00    	jne    804cd54 <_vfprintf_r+0x18a4>
 804cb64:	2b 85 2c ff ff ff    	sub    -0xd4(%ebp),%eax
 804cb6a:	83 fb 47             	cmp    $0x47,%ebx
 804cb6d:	89 85 1c ff ff ff    	mov    %eax,-0xe4(%ebp)
 804cb73:	0f 84 4b 05 00 00    	je     804d0c4 <_vfprintf_r+0x1c14>
 804cb79:	83 bd 24 ff ff ff 65 	cmpl   $0x65,-0xdc(%ebp)
 804cb80:	8b 85 5c ff ff ff    	mov    -0xa4(%ebp),%eax
 804cb86:	0f 8e 92 05 00 00    	jle    804d11e <_vfprintf_r+0x1c6e>
 804cb8c:	83 bd 24 ff ff ff 66 	cmpl   $0x66,-0xdc(%ebp)
 804cb93:	89 85 20 ff ff ff    	mov    %eax,-0xe0(%ebp)
 804cb99:	0f 84 b6 06 00 00    	je     804d255 <_vfprintf_r+0x1da5>
 804cb9f:	8b 85 20 ff ff ff    	mov    -0xe0(%ebp),%eax
 804cba5:	39 85 1c ff ff ff    	cmp    %eax,-0xe4(%ebp)
 804cbab:	0f 8f 4a 06 00 00    	jg     804d1fb <_vfprintf_r+0x1d4b>
 804cbb1:	8b 85 4c ff ff ff    	mov    -0xb4(%ebp),%eax
 804cbb7:	83 e0 01             	and    $0x1,%eax
 804cbba:	0f 85 79 07 00 00    	jne    804d339 <_vfprintf_r+0x1e89>
 804cbc0:	8b 95 20 ff ff ff    	mov    -0xe0(%ebp),%edx
 804cbc6:	c7 85 24 ff ff ff 67 	movl   $0x67,-0xdc(%ebp)
 804cbcd:	00 00 00 
 804cbd0:	85 d2                	test   %edx,%edx
 804cbd2:	0f 49 c2             	cmovns %edx,%eax
 804cbd5:	89 95 38 ff ff ff    	mov    %edx,-0xc8(%ebp)
 804cbdb:	80 bd 48 ff ff ff 00 	cmpb   $0x0,-0xb8(%ebp)
 804cbe2:	0f 85 95 04 00 00    	jne    804d07d <_vfprintf_r+0x1bcd>
 804cbe8:	89 85 48 ff ff ff    	mov    %eax,-0xb8(%ebp)
 804cbee:	8b 85 34 ff ff ff    	mov    -0xcc(%ebp),%eax
 804cbf4:	0f b6 9d 59 ff ff ff 	movzbl -0xa7(%ebp),%ebx
 804cbfb:	c7 85 44 ff ff ff 00 	movl   $0x0,-0xbc(%ebp)
 804cc02:	00 00 00 
 804cc05:	89 85 4c ff ff ff    	mov    %eax,-0xb4(%ebp)
 804cc0b:	e9 f0 eb ff ff       	jmp    804b800 <_vfprintf_r+0x350>
 804cc10:	dd 00                	fldl   (%eax)
 804cc12:	83 c0 08             	add    $0x8,%eax
 804cc15:	dd 9d 10 ff ff ff    	fstpl  -0xf0(%ebp)
 804cc1b:	89 45 14             	mov    %eax,0x14(%ebp)
 804cc1e:	e9 d1 ef ff ff       	jmp    804bbf4 <_vfprintf_r+0x744>
 804cc23:	8d 85 74 ff ff ff    	lea    -0x8c(%ebp),%eax
 804cc29:	89 44 24 08          	mov    %eax,0x8(%esp)
 804cc2d:	8b 45 0c             	mov    0xc(%ebp),%eax
 804cc30:	89 44 24 04          	mov    %eax,0x4(%esp)
 804cc34:	8b 45 08             	mov    0x8(%ebp),%eax
 804cc37:	89 04 24             	mov    %eax,(%esp)
 804cc3a:	e8 a1 39 00 00       	call   80505e0 <__sprint_r>
 804cc3f:	85 c0                	test   %eax,%eax
 804cc41:	0f 85 e1 ea ff ff    	jne    804b728 <_vfprintf_r+0x278>
 804cc47:	8b 8d 7c ff ff ff    	mov    -0x84(%ebp),%ecx
 804cc4d:	8d 7d a8             	lea    -0x58(%ebp),%edi
 804cc50:	e9 32 f5 ff ff       	jmp    804c187 <_vfprintf_r+0xcd7>
 804cc55:	8b 85 78 ff ff ff    	mov    -0x88(%ebp),%eax
 804cc5b:	83 c1 01             	add    $0x1,%ecx
 804cc5e:	83 c7 08             	add    $0x8,%edi
 804cc61:	c7 47 f8 87 3a 05 08 	movl   $0x8053a87,-0x8(%edi)
 804cc68:	c7 47 fc 01 00 00 00 	movl   $0x1,-0x4(%edi)
 804cc6f:	89 8d 7c ff ff ff    	mov    %ecx,-0x84(%ebp)
 804cc75:	83 c0 01             	add    $0x1,%eax
 804cc78:	83 f8 07             	cmp    $0x7,%eax
 804cc7b:	89 85 78 ff ff ff    	mov    %eax,-0x88(%ebp)
 804cc81:	0f 8f 5b 01 00 00    	jg     804cde2 <_vfprintf_r+0x1932>
 804cc87:	85 db                	test   %ebx,%ebx
 804cc89:	0f 84 33 01 00 00    	je     804cdc2 <_vfprintf_r+0x1912>
 804cc8f:	8b 85 18 ff ff ff    	mov    -0xe8(%ebp),%eax
 804cc95:	83 c7 08             	add    $0x8,%edi
 804cc98:	89 47 f8             	mov    %eax,-0x8(%edi)
 804cc9b:	8b 85 0c ff ff ff    	mov    -0xf4(%ebp),%eax
 804cca1:	89 47 fc             	mov    %eax,-0x4(%edi)
 804cca4:	8d 14 01             	lea    (%ecx,%eax,1),%edx
 804cca7:	8b 85 78 ff ff ff    	mov    -0x88(%ebp),%eax
 804ccad:	89 95 7c ff ff ff    	mov    %edx,-0x84(%ebp)
 804ccb3:	83 c0 01             	add    $0x1,%eax
 804ccb6:	83 f8 07             	cmp    $0x7,%eax
 804ccb9:	89 85 78 ff ff ff    	mov    %eax,-0x88(%ebp)
 804ccbf:	0f 8f e3 04 00 00    	jg     804d1a8 <_vfprintf_r+0x1cf8>
 804ccc5:	f7 db                	neg    %ebx
 804ccc7:	85 db                	test   %ebx,%ebx
 804ccc9:	0f 8e d2 01 00 00    	jle    804cea1 <_vfprintf_r+0x19f1>
 804cccf:	83 fb 10             	cmp    $0x10,%ebx
 804ccd2:	0f 8e 74 01 00 00    	jle    804ce4c <_vfprintf_r+0x199c>
 804ccd8:	8d b5 74 ff ff ff    	lea    -0x8c(%ebp),%esi
 804ccde:	eb 0c                	jmp    804ccec <_vfprintf_r+0x183c>
 804cce0:	83 eb 10             	sub    $0x10,%ebx
 804cce3:	83 fb 10             	cmp    $0x10,%ebx
 804cce6:	0f 8e 60 01 00 00    	jle    804ce4c <_vfprintf_r+0x199c>
 804ccec:	83 c0 01             	add    $0x1,%eax
 804ccef:	83 c2 10             	add    $0x10,%edx
 804ccf2:	c7 07 f0 3b 05 08    	movl   $0x8053bf0,(%edi)
 804ccf8:	83 c7 08             	add    $0x8,%edi
 804ccfb:	c7 47 fc 10 00 00 00 	movl   $0x10,-0x4(%edi)
 804cd02:	83 f8 07             	cmp    $0x7,%eax
 804cd05:	89 95 7c ff ff ff    	mov    %edx,-0x84(%ebp)
 804cd0b:	89 85 78 ff ff ff    	mov    %eax,-0x88(%ebp)
 804cd11:	7e cd                	jle    804cce0 <_vfprintf_r+0x1830>
 804cd13:	8b 45 0c             	mov    0xc(%ebp),%eax
 804cd16:	89 74 24 08          	mov    %esi,0x8(%esp)
 804cd1a:	89 44 24 04          	mov    %eax,0x4(%esp)
 804cd1e:	8b 45 08             	mov    0x8(%ebp),%eax
 804cd21:	89 04 24             	mov    %eax,(%esp)
 804cd24:	e8 b7 38 00 00       	call   80505e0 <__sprint_r>
 804cd29:	85 c0                	test   %eax,%eax
 804cd2b:	0f 85 f7 e9 ff ff    	jne    804b728 <_vfprintf_r+0x278>
 804cd31:	8b 95 7c ff ff ff    	mov    -0x84(%ebp),%edx
 804cd37:	8d 7d a8             	lea    -0x58(%ebp),%edi
 804cd3a:	8b 85 78 ff ff ff    	mov    -0x88(%ebp),%eax
 804cd40:	eb 9e                	jmp    804cce0 <_vfprintf_r+0x1830>
 804cd42:	8d b6 00 00 00 00    	lea    0x0(%esi),%esi
 804cd48:	8d 50 01             	lea    0x1(%eax),%edx
 804cd4b:	89 95 6c ff ff ff    	mov    %edx,-0x94(%ebp)
 804cd51:	c6 00 30             	movb   $0x30,(%eax)
 804cd54:	8b 85 6c ff ff ff    	mov    -0x94(%ebp),%eax
 804cd5a:	39 c1                	cmp    %eax,%ecx
 804cd5c:	77 ea                	ja     804cd48 <_vfprintf_r+0x1898>
 804cd5e:	e9 01 fe ff ff       	jmp    804cb64 <_vfprintf_r+0x16b4>
 804cd63:	83 bd 24 ff ff ff 47 	cmpl   $0x47,-0xdc(%ebp)
 804cd6a:	ba 56 3a 05 08       	mov    $0x8053a56,%edx
 804cd6f:	b8 5a 3a 05 08       	mov    $0x8053a5a,%eax
 804cd74:	0f b6 9d 59 ff ff ff 	movzbl -0xa7(%ebp),%ebx
 804cd7b:	c7 85 48 ff ff ff 03 	movl   $0x3,-0xb8(%ebp)
 804cd82:	00 00 00 
 804cd85:	0f 4e c2             	cmovle %edx,%eax
 804cd88:	89 85 2c ff ff ff    	mov    %eax,-0xd4(%ebp)
 804cd8e:	81 a5 4c ff ff ff 7f 	andl   $0xffffff7f,-0xb4(%ebp)
 804cd95:	ff ff ff 
 804cd98:	c7 85 38 ff ff ff 03 	movl   $0x3,-0xc8(%ebp)
 804cd9f:	00 00 00 
 804cda2:	c7 85 44 ff ff ff 00 	movl   $0x0,-0xbc(%ebp)
 804cda9:	00 00 00 
 804cdac:	c7 85 20 ff ff ff 00 	movl   $0x0,-0xe0(%ebp)
 804cdb3:	00 00 00 
 804cdb6:	e9 45 ea ff ff       	jmp    804b800 <_vfprintf_r+0x350>
 804cdbb:	89 d0                	mov    %edx,%eax
 804cdbd:	e9 ce fa ff ff       	jmp    804c890 <_vfprintf_r+0x13e0>
 804cdc2:	8b 95 1c ff ff ff    	mov    -0xe4(%ebp),%edx
 804cdc8:	85 d2                	test   %edx,%edx
 804cdca:	0f 85 bf fe ff ff    	jne    804cc8f <_vfprintf_r+0x17df>
 804cdd0:	f6 85 4c ff ff ff 01 	testb  $0x1,-0xb4(%ebp)
 804cdd7:	0f 84 37 f2 ff ff    	je     804c014 <_vfprintf_r+0xb64>
 804cddd:	e9 ad fe ff ff       	jmp    804cc8f <_vfprintf_r+0x17df>
 804cde2:	8d 85 74 ff ff ff    	lea    -0x8c(%ebp),%eax
 804cde8:	89 44 24 08          	mov    %eax,0x8(%esp)
 804cdec:	8b 45 0c             	mov    0xc(%ebp),%eax
 804cdef:	89 44 24 04          	mov    %eax,0x4(%esp)
 804cdf3:	8b 45 08             	mov    0x8(%ebp),%eax
 804cdf6:	89 04 24             	mov    %eax,(%esp)
 804cdf9:	e8 e2 37 00 00       	call   80505e0 <__sprint_r>
 804cdfe:	85 c0                	test   %eax,%eax
 804ce00:	0f 85 22 e9 ff ff    	jne    804b728 <_vfprintf_r+0x278>
 804ce06:	8b 9d 5c ff ff ff    	mov    -0xa4(%ebp),%ebx
 804ce0c:	8d 7d a8             	lea    -0x58(%ebp),%edi
 804ce0f:	8b 8d 7c ff ff ff    	mov    -0x84(%ebp),%ecx
 804ce15:	e9 6d fe ff ff       	jmp    804cc87 <_vfprintf_r+0x17d7>
 804ce1a:	8d 85 74 ff ff ff    	lea    -0x8c(%ebp),%eax
 804ce20:	89 44 24 08          	mov    %eax,0x8(%esp)
 804ce24:	8b 45 0c             	mov    0xc(%ebp),%eax
 804ce27:	89 44 24 04          	mov    %eax,0x4(%esp)
 804ce2b:	8b 45 08             	mov    0x8(%ebp),%eax
 804ce2e:	89 04 24             	mov    %eax,(%esp)
 804ce31:	e8 aa 37 00 00       	call   80505e0 <__sprint_r>
 804ce36:	85 c0                	test   %eax,%eax
 804ce38:	0f 85 ea e8 ff ff    	jne    804b728 <_vfprintf_r+0x278>
 804ce3e:	8b 8d 7c ff ff ff    	mov    -0x84(%ebp),%ecx
 804ce44:	8d 7d a8             	lea    -0x58(%ebp),%edi
 804ce47:	e9 8b f3 ff ff       	jmp    804c1d7 <_vfprintf_r+0xd27>
 804ce4c:	83 c0 01             	add    $0x1,%eax
 804ce4f:	01 da                	add    %ebx,%edx
 804ce51:	c7 07 f0 3b 05 08    	movl   $0x8053bf0,(%edi)
 804ce57:	83 c7 08             	add    $0x8,%edi
 804ce5a:	89 5f fc             	mov    %ebx,-0x4(%edi)
 804ce5d:	83 f8 07             	cmp    $0x7,%eax
 804ce60:	89 95 7c ff ff ff    	mov    %edx,-0x84(%ebp)
 804ce66:	89 85 78 ff ff ff    	mov    %eax,-0x88(%ebp)
 804ce6c:	7e 33                	jle    804cea1 <_vfprintf_r+0x19f1>
 804ce6e:	8d 85 74 ff ff ff    	lea    -0x8c(%ebp),%eax
 804ce74:	89 44 24 08          	mov    %eax,0x8(%esp)
 804ce78:	8b 45 0c             	mov    0xc(%ebp),%eax
 804ce7b:	89 44 24 04          	mov    %eax,0x4(%esp)
 804ce7f:	8b 45 08             	mov    0x8(%ebp),%eax
 804ce82:	89 04 24             	mov    %eax,(%esp)
 804ce85:	e8 56 37 00 00       	call   80505e0 <__sprint_r>
 804ce8a:	85 c0                	test   %eax,%eax
 804ce8c:	0f 85 96 e8 ff ff    	jne    804b728 <_vfprintf_r+0x278>
 804ce92:	8b 95 7c ff ff ff    	mov    -0x84(%ebp),%edx
 804ce98:	8d 7d a8             	lea    -0x58(%ebp),%edi
 804ce9b:	8b 85 78 ff ff ff    	mov    -0x88(%ebp),%eax
 804cea1:	8b 9d 2c ff ff ff    	mov    -0xd4(%ebp),%ebx
 804cea7:	83 c0 01             	add    $0x1,%eax
 804ceaa:	89 85 78 ff ff ff    	mov    %eax,-0x88(%ebp)
 804ceb0:	89 1f                	mov    %ebx,(%edi)
 804ceb2:	8b 9d 1c ff ff ff    	mov    -0xe4(%ebp),%ebx
 804ceb8:	01 da                	add    %ebx,%edx
 804ceba:	83 f8 07             	cmp    $0x7,%eax
 804cebd:	89 5f 04             	mov    %ebx,0x4(%edi)
 804cec0:	89 95 7c ff ff ff    	mov    %edx,-0x84(%ebp)
 804cec6:	0f 8f af f5 ff ff    	jg     804c47b <_vfprintf_r+0xfcb>
 804cecc:	83 c7 08             	add    $0x8,%edi
 804cecf:	89 d1                	mov    %edx,%ecx
 804ced1:	e9 3e f1 ff ff       	jmp    804c014 <_vfprintf_r+0xb64>
 804ced6:	8b 85 2c ff ff ff    	mov    -0xd4(%ebp),%eax
 804cedc:	89 04 24             	mov    %eax,(%esp)
 804cedf:	e8 9c 35 00 00       	call   8050480 <strlen>
 804cee4:	e9 df e8 ff ff       	jmp    804b7c8 <_vfprintf_r+0x318>
 804cee9:	8d 85 74 ff ff ff    	lea    -0x8c(%ebp),%eax
 804ceef:	89 44 24 08          	mov    %eax,0x8(%esp)
 804cef3:	8b 45 0c             	mov    0xc(%ebp),%eax
 804cef6:	89 44 24 04          	mov    %eax,0x4(%esp)
 804cefa:	8b 45 08             	mov    0x8(%ebp),%eax
 804cefd:	89 04 24             	mov    %eax,(%esp)
 804cf00:	e8 db 36 00 00       	call   80505e0 <__sprint_r>
 804cf05:	85 c0                	test   %eax,%eax
 804cf07:	0f 85 1b e8 ff ff    	jne    804b728 <_vfprintf_r+0x278>
 804cf0d:	8b 8d 7c ff ff ff    	mov    -0x84(%ebp),%ecx
 804cf13:	8d 7d a8             	lea    -0x58(%ebp),%edi
 804cf16:	e9 ec f6 ff ff       	jmp    804c607 <_vfprintf_r+0x1157>
 804cf1b:	8d 85 74 ff ff ff    	lea    -0x8c(%ebp),%eax
 804cf21:	89 44 24 08          	mov    %eax,0x8(%esp)
 804cf25:	8b 45 0c             	mov    0xc(%ebp),%eax
 804cf28:	89 44 24 04          	mov    %eax,0x4(%esp)
 804cf2c:	8b 45 08             	mov    0x8(%ebp),%eax
 804cf2f:	89 04 24             	mov    %eax,(%esp)
 804cf32:	e8 a9 36 00 00       	call   80505e0 <__sprint_r>
 804cf37:	85 c0                	test   %eax,%eax
 804cf39:	0f 85 e9 e7 ff ff    	jne    804b728 <_vfprintf_r+0x278>
 804cf3f:	8b 85 5c ff ff ff    	mov    -0xa4(%ebp),%eax
 804cf45:	8d 7d a8             	lea    -0x58(%ebp),%edi
 804cf48:	8b 8d 7c ff ff ff    	mov    -0x84(%ebp),%ecx
 804cf4e:	e9 3d f9 ff ff       	jmp    804c890 <_vfprintf_r+0x13e0>
 804cf53:	8d 85 74 ff ff ff    	lea    -0x8c(%ebp),%eax
 804cf59:	89 44 24 08          	mov    %eax,0x8(%esp)
 804cf5d:	8b 45 0c             	mov    0xc(%ebp),%eax
 804cf60:	89 44 24 04          	mov    %eax,0x4(%esp)
 804cf64:	8b 45 08             	mov    0x8(%ebp),%eax
 804cf67:	89 04 24             	mov    %eax,(%esp)
 804cf6a:	e8 71 36 00 00       	call   80505e0 <__sprint_r>
 804cf6f:	85 c0                	test   %eax,%eax
 804cf71:	0f 85 b1 e7 ff ff    	jne    804b728 <_vfprintf_r+0x278>
 804cf77:	8b b5 1c ff ff ff    	mov    -0xe4(%ebp),%esi
 804cf7d:	8d 7d a8             	lea    -0x58(%ebp),%edi
 804cf80:	2b b5 5c ff ff ff    	sub    -0xa4(%ebp),%esi
 804cf86:	8b 8d 7c ff ff ff    	mov    -0x84(%ebp),%ecx
 804cf8c:	e9 43 f9 ff ff       	jmp    804c8d4 <_vfprintf_r+0x1424>
 804cf91:	8b 95 44 ff ff ff    	mov    -0xbc(%ebp),%edx
 804cf97:	b0 06                	mov    $0x6,%al
 804cf99:	89 75 14             	mov    %esi,0x14(%ebp)
 804cf9c:	c7 85 44 ff ff ff 00 	movl   $0x0,-0xbc(%ebp)
 804cfa3:	00 00 00 
 804cfa6:	c7 85 20 ff ff ff 00 	movl   $0x0,-0xe0(%ebp)
 804cfad:	00 00 00 
 804cfb0:	83 fa 06             	cmp    $0x6,%edx
 804cfb3:	0f 46 c2             	cmovbe %edx,%eax
 804cfb6:	8b 95 2c ff ff ff    	mov    -0xd4(%ebp),%edx
 804cfbc:	85 c0                	test   %eax,%eax
 804cfbe:	89 85 38 ff ff ff    	mov    %eax,-0xc8(%ebp)
 804cfc4:	c7 85 2c ff ff ff 80 	movl   $0x8053a80,-0xd4(%ebp)
 804cfcb:	3a 05 08 
 804cfce:	0f 49 d0             	cmovns %eax,%edx
 804cfd1:	31 db                	xor    %ebx,%ebx
 804cfd3:	89 95 48 ff ff ff    	mov    %edx,-0xb8(%ebp)
